	.section .mdebug.abi32
	.previous
	.gnu_attribute 4, 3
	.section	.text,code
.Ltext0:
	.cfi_sections	.debug_frame

	.comm	rgbOledBmp,512,4

	.comm	pfnDoRop,4,4

	.comm	modOledCur,4,4
	.align	2
	.globl	OledMoveTo
.LFB2 = .
	.file 1 "e:/\264\375\260\354\312\302\317\356/\315\352\263\311\312\257\300\317\312\246\264\363\321\247\274\306\273\256\310\316\316\361/cml/the-connected-mcu-lab--v1.5-12oct2016-chn/release/modules/12_performance/demo12_optimization/src/oled/oledgrph.c"
	.loc 1 114 0
	.cfi_startproc
	.set	nomips16
	.set	nomicromips
	.ent	OledMoveTo
	.type	OledMoveTo, @function
OledMoveTo:
	.frame	$fp,24,$31		# vars= 0, regs= 2/0, args= 16, gp= 0
	.mask	0xc0000000,-4
	.fmask	0x00000000,0
	.set	noreorder
	.set	nomacro
# End mchp_output_function_prologue
	addiu	$sp,$sp,-24
.LCFI0 = .
	.cfi_def_cfa_offset 24
	sw	$31,20($sp)
	sw	$fp,16($sp)
	.cfi_offset 31, -4
	.cfi_offset 30, -8
	move	$fp,$sp
.LCFI1 = .
	.cfi_def_cfa_register 30
	sw	$4,24($fp)
	sw	$5,28($fp)
	.loc 1 118 0
	lw	$4,24($fp)
	jal	OledClampXco
	nop

	sw	$2,24($fp)
	.loc 1 119 0
	lw	$4,28($fp)
	jal	OledClampYco
	nop

	sw	$2,28($fp)
	.loc 1 123 0
	lw	$2,24($fp)
	sw	$2,%gp_rel(xcoOledCur)($28)
	.loc 1 124 0
	lw	$2,28($fp)
	sw	$2,%gp_rel(ycoOledCur)($28)
	.loc 1 129 0
	lw	$2,28($fp)
	addiu	$3,$2,7
	slt	$4,$2,0
	movn	$2,$3,$4
	sra	$2,$2,3
	sll	$3,$2,7
	lw	$2,24($fp)
	addu	$3,$3,$2
	lui	$2,%hi(rgbOledBmp)
	addiu	$2,$2,%lo(rgbOledBmp)
	addu	$2,$3,$2
	sw	$2,%gp_rel(pbOledCur)($28)
	.loc 1 130 0
	lw	$2,28($fp)
	andi	$2,$2,0x7
	sw	$2,%gp_rel(bnOledCur)($28)
	.loc 1 132 0
	move	$sp,$fp
.LCFI2 = .
	.cfi_def_cfa_register 29
	lw	$31,20($sp)
	lw	$fp,16($sp)
	addiu	$sp,$sp,24
	j	$31
	nop

	.set	macro
	.set	reorder
# Begin mchp_output_function_epilogue
# End mchp_output_function_epilogue
	.end	OledMoveTo
	.cfi_endproc
.LFE2:
	.size	OledMoveTo, .-OledMoveTo
	.align	2
	.globl	OledGetPos
.LFB3 = .
	.loc 1 153 0
	.cfi_startproc
	.set	nomips16
	.set	nomicromips
	.ent	OledGetPos
	.type	OledGetPos, @function
OledGetPos:
	.frame	$fp,8,$31		# vars= 0, regs= 1/0, args= 0, gp= 0
	.mask	0x40000000,-4
	.fmask	0x00000000,0
	.set	noreorder
	.set	nomacro
# End mchp_output_function_prologue
	addiu	$sp,$sp,-8
.LCFI3 = .
	.cfi_def_cfa_offset 8
	sw	$fp,4($sp)
	.cfi_offset 30, -4
	move	$fp,$sp
.LCFI4 = .
	.cfi_def_cfa_register 30
	sw	$4,8($fp)
	sw	$5,12($fp)
	.loc 1 155 0
	lw	$3,%gp_rel(xcoOledCur)($28)
	lw	$2,8($fp)
	sw	$3,0($2)
	.loc 1 156 0
	lw	$3,%gp_rel(ycoOledCur)($28)
	lw	$2,12($fp)
	sw	$3,0($2)
	.loc 1 158 0
	move	$sp,$fp
.LCFI5 = .
	.cfi_def_cfa_register 29
	lw	$fp,4($sp)
	addiu	$sp,$sp,8
	j	$31
	nop

	.set	macro
	.set	reorder
# Begin mchp_output_function_epilogue
# End mchp_output_function_epilogue
	.end	OledGetPos
	.cfi_endproc
.LFE3:
	.size	OledGetPos, .-OledGetPos
	.align	2
	.globl	OledSetDrawColor
.LFB4 = .
	.loc 1 178 0
	.cfi_startproc
	.set	nomips16
	.set	nomicromips
	.ent	OledSetDrawColor
	.type	OledSetDrawColor, @function
OledSetDrawColor:
	.frame	$fp,8,$31		# vars= 0, regs= 1/0, args= 0, gp= 0
	.mask	0x40000000,-4
	.fmask	0x00000000,0
	.set	noreorder
	.set	nomacro
# End mchp_output_function_prologue
	addiu	$sp,$sp,-8
.LCFI6 = .
	.cfi_def_cfa_offset 8
	sw	$fp,4($sp)
	.cfi_offset 30, -4
	move	$fp,$sp
.LCFI7 = .
	.cfi_def_cfa_register 30
	move	$2,$4
	sb	$2,8($fp)
	.loc 1 180 0
	lbu	$2,8($fp)
	andi	$2,$2,0x1
	andi	$2,$2,0x00ff
	sb	$2,%gp_rel(clrOledCur)($28)
	.loc 1 182 0
	move	$sp,$fp
.LCFI8 = .
	.cfi_def_cfa_register 29
	lw	$fp,4($sp)
	addiu	$sp,$sp,8
	j	$31
	nop

	.set	macro
	.set	reorder
# Begin mchp_output_function_epilogue
# End mchp_output_function_epilogue
	.end	OledSetDrawColor
	.cfi_endproc
.LFE4:
	.size	OledSetDrawColor, .-OledSetDrawColor
	.align	2
	.globl	OledGetStdPattern
.LFB5 = .
	.loc 1 203 0
	.cfi_startproc
	.set	nomips16
	.set	nomicromips
	.ent	OledGetStdPattern
	.type	OledGetStdPattern, @function
OledGetStdPattern:
	.frame	$fp,8,$31		# vars= 0, regs= 1/0, args= 0, gp= 0
	.mask	0x40000000,-4
	.fmask	0x00000000,0
	.set	noreorder
	.set	nomacro
# End mchp_output_function_prologue
	addiu	$sp,$sp,-8
.LCFI9 = .
	.cfi_def_cfa_offset 8
	sw	$fp,4($sp)
	.cfi_offset 30, -4
	move	$fp,$sp
.LCFI10 = .
	.cfi_def_cfa_register 30
	sw	$4,8($fp)
	.loc 1 205 0
	lw	$2,8($fp)
	sll	$2,$2,3
	move	$3,$2
	lui	$2,%hi(rgbFillPat)
	addiu	$2,$2,%lo(rgbFillPat)
	addu	$2,$3,$2
	.loc 1 207 0
	move	$sp,$fp
.LCFI11 = .
	.cfi_def_cfa_register 29
	lw	$fp,4($sp)
	addiu	$sp,$sp,8
	j	$31
	nop

	.set	macro
	.set	reorder
# Begin mchp_output_function_epilogue
# End mchp_output_function_epilogue
	.end	OledGetStdPattern
	.cfi_endproc
.LFE5:
	.size	OledGetStdPattern, .-OledGetStdPattern
	.align	2
	.globl	OledSetFillPattern
.LFB6 = .
	.loc 1 228 0
	.cfi_startproc
	.set	nomips16
	.set	nomicromips
	.ent	OledSetFillPattern
	.type	OledSetFillPattern, @function
OledSetFillPattern:
	.frame	$fp,8,$31		# vars= 0, regs= 1/0, args= 0, gp= 0
	.mask	0x40000000,-4
	.fmask	0x00000000,0
	.set	noreorder
	.set	nomacro
# End mchp_output_function_prologue
	addiu	$sp,$sp,-8
.LCFI12 = .
	.cfi_def_cfa_offset 8
	sw	$fp,4($sp)
	.cfi_offset 30, -4
	move	$fp,$sp
.LCFI13 = .
	.cfi_def_cfa_register 30
	sw	$4,8($fp)
	.loc 1 230 0
	lw	$2,8($fp)
	sw	$2,%gp_rel(pbOledPatCur)($28)
	.loc 1 232 0
	move	$sp,$fp
.LCFI14 = .
	.cfi_def_cfa_register 29
	lw	$fp,4($sp)
	addiu	$sp,$sp,8
	j	$31
	nop

	.set	macro
	.set	reorder
# Begin mchp_output_function_epilogue
# End mchp_output_function_epilogue
	.end	OledSetFillPattern
	.cfi_endproc
.LFE6:
	.size	OledSetFillPattern, .-OledSetFillPattern
	.align	2
	.globl	OledSetDrawMode
.LFB7 = .
	.loc 1 252 0
	.cfi_startproc
	.set	nomips16
	.set	nomicromips
	.ent	OledSetDrawMode
	.type	OledSetDrawMode, @function
OledSetDrawMode:
	.frame	$fp,8,$31		# vars= 0, regs= 1/0, args= 0, gp= 0
	.mask	0x40000000,-4
	.fmask	0x00000000,0
	.set	noreorder
	.set	nomacro
# End mchp_output_function_prologue
	addiu	$sp,$sp,-8
.LCFI15 = .
	.cfi_def_cfa_offset 8
	sw	$fp,4($sp)
	.cfi_offset 30, -4
	move	$fp,$sp
.LCFI16 = .
	.cfi_def_cfa_register 30
	sw	$4,8($fp)
	.loc 1 254 0
	lw	$2,8($fp)
	sw	$2,%gp_rel(modOledCur)($28)
	.loc 1 256 0
	lw	$2,8($fp)
	li	$3,1			# 0x1
	beq	$2,$3,.L9
	nop

	slt	$3,$2,2
	beq	$3,$0,.L10
	nop

	beq	$2,$0,.L11
	nop

	j	.L8
	nop

.L10:
	li	$3,2			# 0x2
	beq	$2,$3,.L12
	nop

	li	$3,3			# 0x3
	beq	$2,$3,.L13
	nop

	j	.L8
	nop

.L11:
	.loc 1 258 0
	lui	$2,%hi(OledRopSet)
	addiu	$2,$2,%lo(OledRopSet)
	sw	$2,%gp_rel(pfnDoRop)($28)
	.loc 1 259 0
	j	.L7
	nop

.L9:
	.loc 1 262 0
	lui	$2,%hi(OledRopOr)
	addiu	$2,$2,%lo(OledRopOr)
	sw	$2,%gp_rel(pfnDoRop)($28)
	.loc 1 263 0
	j	.L7
	nop

.L12:
	.loc 1 266 0
	lui	$2,%hi(OledRopAnd)
	addiu	$2,$2,%lo(OledRopAnd)
	sw	$2,%gp_rel(pfnDoRop)($28)
	.loc 1 267 0
	j	.L7
	nop

.L13:
	.loc 1 270 0
	lui	$2,%hi(OledRopXor)
	addiu	$2,$2,%lo(OledRopXor)
	sw	$2,%gp_rel(pfnDoRop)($28)
	.loc 1 271 0
	j	.L7
	nop

.L8:
	.loc 1 274 0
	sw	$0,%gp_rel(modOledCur)($28)
	.loc 1 275 0
	lui	$2,%hi(OledRopSet)
	addiu	$2,$2,%lo(OledRopSet)
	sw	$2,%gp_rel(pfnDoRop)($28)
.L7:
	.loc 1 278 0
	move	$sp,$fp
.LCFI17 = .
	.cfi_def_cfa_register 29
	lw	$fp,4($sp)
	addiu	$sp,$sp,8
	j	$31
	nop

	.set	macro
	.set	reorder
# Begin mchp_output_function_epilogue
# End mchp_output_function_epilogue
	.end	OledSetDrawMode
	.cfi_endproc
.LFE7:
	.size	OledSetDrawMode, .-OledSetDrawMode
	.align	2
	.globl	OledGetDrawMode
.LFB8 = .
	.loc 1 298 0
	.cfi_startproc
	.set	nomips16
	.set	nomicromips
	.ent	OledGetDrawMode
	.type	OledGetDrawMode, @function
OledGetDrawMode:
	.frame	$fp,8,$31		# vars= 0, regs= 1/0, args= 0, gp= 0
	.mask	0x40000000,-4
	.fmask	0x00000000,0
	.set	noreorder
	.set	nomacro
# End mchp_output_function_prologue
	addiu	$sp,$sp,-8
.LCFI18 = .
	.cfi_def_cfa_offset 8
	sw	$fp,4($sp)
	.cfi_offset 30, -4
	move	$fp,$sp
.LCFI19 = .
	.cfi_def_cfa_register 30
	.loc 1 300 0
	lw	$2,%gp_rel(modOledCur)($28)
	.loc 1 302 0
	move	$sp,$fp
.LCFI20 = .
	.cfi_def_cfa_register 29
	lw	$fp,4($sp)
	addiu	$sp,$sp,8
	j	$31
	nop

	.set	macro
	.set	reorder
# Begin mchp_output_function_epilogue
# End mchp_output_function_epilogue
	.end	OledGetDrawMode
	.cfi_endproc
.LFE8:
	.size	OledGetDrawMode, .-OledGetDrawMode
	.align	2
	.globl	OledDrawPixel
.LFB9 = .
	.loc 1 323 0
	.cfi_startproc
	.set	nomips16
	.set	nomicromips
	.ent	OledDrawPixel
	.type	OledDrawPixel, @function
OledDrawPixel:
	.frame	$fp,32,$31		# vars= 0, regs= 3/0, args= 16, gp= 0
	.mask	0xc0010000,-4
	.fmask	0x00000000,0
	.set	noreorder
	.set	nomacro
# End mchp_output_function_prologue
	addiu	$sp,$sp,-32
.LCFI21 = .
	.cfi_def_cfa_offset 32
	sw	$31,28($sp)
	sw	$fp,24($sp)
	sw	$16,20($sp)
	.cfi_offset 31, -4
	.cfi_offset 30, -8
	.cfi_offset 16, -12
	move	$fp,$sp
.LCFI22 = .
	.cfi_def_cfa_register 30
	.loc 1 325 0
	lw	$16,%gp_rel(pbOledCur)($28)
	lw	$2,%gp_rel(pfnDoRop)($28)
	lbu	$3,%gp_rel(clrOledCur)($28)
	move	$4,$3
	lw	$3,%gp_rel(bnOledCur)($28)
	sll	$3,$4,$3
	andi	$3,$3,0x00ff
	move	$4,$3
	lw	$3,%gp_rel(pbOledCur)($28)
	lbu	$3,0($3)
	move	$5,$3
	lw	$3,%gp_rel(bnOledCur)($28)
	li	$6,1			# 0x1
	sll	$3,$6,$3
	andi	$3,$3,0x00ff
	move	$6,$3
	jalr	$2
	nop

	sb	$2,0($16)
	.loc 1 327 0
	move	$sp,$fp
.LCFI23 = .
	.cfi_def_cfa_register 29
	lw	$31,28($sp)
	lw	$fp,24($sp)
	lw	$16,20($sp)
	addiu	$sp,$sp,32
	j	$31
	nop

	.set	macro
	.set	reorder
# Begin mchp_output_function_epilogue
# End mchp_output_function_epilogue
	.end	OledDrawPixel
	.cfi_endproc
.LFE9:
	.size	OledDrawPixel, .-OledDrawPixel
	.align	2
	.globl	OledGetPixel
.LFB10 = .
	.loc 1 347 0
	.cfi_startproc
	.set	nomips16
	.set	nomicromips
	.ent	OledGetPixel
	.type	OledGetPixel, @function
OledGetPixel:
	.frame	$fp,8,$31		# vars= 0, regs= 1/0, args= 0, gp= 0
	.mask	0x40000000,-4
	.fmask	0x00000000,0
	.set	noreorder
	.set	nomacro
# End mchp_output_function_prologue
	addiu	$sp,$sp,-8
.LCFI24 = .
	.cfi_def_cfa_offset 8
	sw	$fp,4($sp)
	.cfi_offset 30, -4
	move	$fp,$sp
.LCFI25 = .
	.cfi_def_cfa_register 30
	.loc 1 349 0
	lw	$2,%gp_rel(pbOledCur)($28)
	lbu	$2,0($2)
	move	$3,$2
	lw	$2,%gp_rel(bnOledCur)($28)
	sra	$2,$3,$2
	andi	$2,$2,0x1
	sltu	$2,$0,$2
	andi	$2,$2,0x00ff
	.loc 1 351 0
	move	$sp,$fp
.LCFI26 = .
	.cfi_def_cfa_register 29
	lw	$fp,4($sp)
	addiu	$sp,$sp,8
	j	$31
	nop

	.set	macro
	.set	reorder
# Begin mchp_output_function_epilogue
# End mchp_output_function_epilogue
	.end	OledGetPixel
	.cfi_endproc
.LFE10:
	.size	OledGetPixel, .-OledGetPixel
	.align	2
	.globl	OledLineTo
.LFB11 = .
	.loc 1 373 0
	.cfi_startproc
	.set	nomips16
	.set	nomicromips
	.ent	OledLineTo
	.type	OledLineTo, @function
OledLineTo:
	.frame	$fp,56,$31		# vars= 32, regs= 2/0, args= 16, gp= 0
	.mask	0xc0000000,-4
	.fmask	0x00000000,0
	.set	noreorder
	.set	nomacro
# End mchp_output_function_prologue
	addiu	$sp,$sp,-56
.LCFI27 = .
	.cfi_def_cfa_offset 56
	sw	$31,52($sp)
	sw	$fp,48($sp)
	.cfi_offset 31, -4
	.cfi_offset 30, -8
	move	$fp,$sp
.LCFI28 = .
	.cfi_def_cfa_register 30
	sw	$4,56($fp)
	sw	$5,60($fp)
	.loc 1 385 0
	lw	$4,56($fp)
	jal	OledClampXco
	nop

	sw	$2,56($fp)
	.loc 1 386 0
	lw	$4,60($fp)
	jal	OledClampYco
	nop

	sw	$2,60($fp)
	.loc 1 390 0
	lw	$2,%gp_rel(xcoOledCur)($28)
	lw	$3,56($fp)
	subu	$2,$3,$2
	sw	$2,40($fp)
	.loc 1 391 0
	lw	$2,%gp_rel(ycoOledCur)($28)
	lw	$3,60($fp)
	subu	$2,$3,$2
	sw	$2,44($fp)
	.loc 1 392 0
	lw	$2,40($fp)
	sra	$2,$2,31
	lw	$3,40($fp)
	xor	$3,$2,$3
	subu	$3,$3,$2
	lw	$2,44($fp)
	sra	$4,$2,31
	lw	$2,44($fp)
	xor	$2,$4,$2
	subu	$2,$2,$4
	slt	$2,$3,$2
	bne	$2,$0,.L21
	nop

	.loc 1 395 0
	lw	$2,40($fp)
	sra	$2,$2,31
	lw	$3,40($fp)
	xor	$3,$2,$3
	subu	$2,$3,$2
	sw	$2,24($fp)
	.loc 1 396 0
	lw	$2,44($fp)
	sra	$2,$2,31
	lw	$3,44($fp)
	xor	$3,$2,$3
	subu	$2,$3,$2
	sw	$2,20($fp)
	.loc 1 397 0
	lw	$2,40($fp)
	bltz	$2,.L22
	nop

	.loc 1 398 0
	lui	$2,%hi(OledMoveRight)
	addiu	$2,$2,%lo(OledMoveRight)
	sw	$2,32($fp)
	j	.L23
	nop

.L22:
	.loc 1 401 0
	lui	$2,%hi(OledMoveLeft)
	addiu	$2,$2,%lo(OledMoveLeft)
	sw	$2,32($fp)
.L23:
	.loc 1 404 0
	lw	$2,44($fp)
	bltz	$2,.L24
	nop

	.loc 1 405 0
	lui	$2,%hi(OledMoveDown)
	addiu	$2,$2,%lo(OledMoveDown)
	sw	$2,36($fp)
	j	.L26
	nop

.L24:
	.loc 1 408 0
	lui	$2,%hi(OledMoveUp)
	addiu	$2,$2,%lo(OledMoveUp)
	sw	$2,36($fp)
	j	.L26
	nop

.L21:
	.loc 1 414 0
	lw	$2,44($fp)
	sra	$2,$2,31
	lw	$3,44($fp)
	xor	$3,$2,$3
	subu	$2,$3,$2
	sw	$2,24($fp)
	.loc 1 415 0
	lw	$2,40($fp)
	sra	$2,$2,31
	lw	$3,40($fp)
	xor	$3,$2,$3
	subu	$2,$3,$2
	sw	$2,20($fp)
	.loc 1 416 0
	lw	$2,44($fp)
	bltz	$2,.L27
	nop

	.loc 1 417 0
	lui	$2,%hi(OledMoveDown)
	addiu	$2,$2,%lo(OledMoveDown)
	sw	$2,32($fp)
	j	.L28
	nop

.L27:
	.loc 1 420 0
	lui	$2,%hi(OledMoveUp)
	addiu	$2,$2,%lo(OledMoveUp)
	sw	$2,32($fp)
.L28:
	.loc 1 423 0
	lw	$2,40($fp)
	bltz	$2,.L29
	nop

	.loc 1 424 0
	lui	$2,%hi(OledMoveRight)
	addiu	$2,$2,%lo(OledMoveRight)
	sw	$2,36($fp)
	j	.L26
	nop

.L29:
	.loc 1 427 0
	lui	$2,%hi(OledMoveLeft)
	addiu	$2,$2,%lo(OledMoveLeft)
	sw	$2,36($fp)
.L26:
	.loc 1 439 0
	lw	$2,24($fp)
	srl	$3,$2,31
	addu	$2,$3,$2
	sra	$2,$2,1
	sw	$2,16($fp)
	.loc 1 440 0
	lw	$2,24($fp)
	sw	$2,28($fp)
	.loc 1 441 0
	j	.L30
	nop

.L32:
	.loc 1 442 0
	jal	OledDrawPixel
	nop

	.loc 1 443 0
	lw	$2,32($fp)
	jalr	$2
	nop

	.loc 1 444 0
	lw	$3,16($fp)
	lw	$2,20($fp)
	addu	$2,$3,$2
	sw	$2,16($fp)
	.loc 1 445 0
	lw	$3,16($fp)
	lw	$2,24($fp)
	slt	$2,$2,$3
	beq	$2,$0,.L31
	nop

	.loc 1 446 0
	lw	$3,16($fp)
	lw	$2,24($fp)
	subu	$2,$3,$2
	sw	$2,16($fp)
	.loc 1 447 0
	lw	$2,36($fp)
	jalr	$2
	nop

.L31:
	.loc 1 449 0
	lw	$2,28($fp)
	addiu	$2,$2,-1
	sw	$2,28($fp)
.L30:
	.loc 1 441 0
	lw	$2,28($fp)
	bgtz	$2,.L32
	nop

	.loc 1 454 0
	lw	$2,56($fp)
	sw	$2,%gp_rel(xcoOledCur)($28)
	.loc 1 455 0
	lw	$2,60($fp)
	sw	$2,%gp_rel(ycoOledCur)($28)
	.loc 1 457 0
	move	$sp,$fp
.LCFI29 = .
	.cfi_def_cfa_register 29
	lw	$31,52($sp)
	lw	$fp,48($sp)
	addiu	$sp,$sp,56
	j	$31
	nop

	.set	macro
	.set	reorder
# Begin mchp_output_function_epilogue
# End mchp_output_function_epilogue
	.end	OledLineTo
	.cfi_endproc
.LFE11:
	.size	OledLineTo, .-OledLineTo
	.align	2
	.globl	OledDrawRect
.LFB12 = .
	.loc 1 479 0
	.cfi_startproc
	.set	nomips16
	.set	nomicromips
	.ent	OledDrawRect
	.type	OledDrawRect, @function
OledDrawRect:
	.frame	$fp,32,$31		# vars= 8, regs= 2/0, args= 16, gp= 0
	.mask	0xc0000000,-4
	.fmask	0x00000000,0
	.set	noreorder
	.set	nomacro
# End mchp_output_function_prologue
	addiu	$sp,$sp,-32
.LCFI30 = .
	.cfi_def_cfa_offset 32
	sw	$31,28($sp)
	sw	$fp,24($sp)
	.cfi_offset 31, -4
	.cfi_offset 30, -8
	move	$fp,$sp
.LCFI31 = .
	.cfi_def_cfa_register 30
	sw	$4,32($fp)
	sw	$5,36($fp)
	.loc 1 485 0
	lw	$4,32($fp)
	jal	OledClampXco
	nop

	sw	$2,32($fp)
	.loc 1 486 0
	lw	$4,36($fp)
	jal	OledClampYco
	nop

	sw	$2,36($fp)
	.loc 1 488 0
	lw	$2,%gp_rel(xcoOledCur)($28)
	sw	$2,16($fp)
	.loc 1 489 0
	lw	$2,%gp_rel(ycoOledCur)($28)
	sw	$2,20($fp)
	.loc 1 490 0
	lw	$4,32($fp)
	lw	$5,20($fp)
	jal	OledLineTo
	nop

	.loc 1 491 0
	lw	$4,32($fp)
	lw	$5,36($fp)
	jal	OledLineTo
	nop

	.loc 1 492 0
	lw	$4,16($fp)
	lw	$5,36($fp)
	jal	OledLineTo
	nop

	.loc 1 493 0
	lw	$4,16($fp)
	lw	$5,20($fp)
	jal	OledLineTo
	nop

	.loc 1 494 0
	move	$sp,$fp
.LCFI32 = .
	.cfi_def_cfa_register 29
	lw	$31,28($sp)
	lw	$fp,24($sp)
	addiu	$sp,$sp,32
	j	$31
	nop

	.set	macro
	.set	reorder
# Begin mchp_output_function_epilogue
# End mchp_output_function_epilogue
	.end	OledDrawRect
	.cfi_endproc
.LFE12:
	.size	OledDrawRect, .-OledDrawRect
	.align	2
	.globl	OledFillRect
.LFB13 = .
	.loc 1 516 0
	.cfi_startproc
	.set	nomips16
	.set	nomicromips
	.ent	OledFillRect
	.type	OledFillRect, @function
OledFillRect:
	.frame	$fp,64,$31		# vars= 40, regs= 2/0, args= 16, gp= 0
	.mask	0xc0000000,-4
	.fmask	0x00000000,0
	.set	noreorder
	.set	nomacro
# End mchp_output_function_prologue
	addiu	$sp,$sp,-64
.LCFI33 = .
	.cfi_def_cfa_offset 64
	sw	$31,60($sp)
	sw	$fp,56($sp)
	.cfi_offset 31, -4
	.cfi_offset 30, -8
	move	$fp,$sp
.LCFI34 = .
	.cfi_def_cfa_register 30
	sw	$4,64($fp)
	sw	$5,68($fp)
	.loc 1 530 0
	lw	$4,64($fp)
	jal	OledClampXco
	nop

	sw	$2,64($fp)
	.loc 1 531 0
	lw	$4,68($fp)
	jal	OledClampYco
	nop

	sw	$2,68($fp)
	.loc 1 535 0
	lw	$3,%gp_rel(xcoOledCur)($28)
	lw	$2,64($fp)
	slt	$2,$3,$2
	beq	$2,$0,.L35
	nop

	.loc 1 536 0
	lw	$2,%gp_rel(xcoOledCur)($28)
	sw	$2,16($fp)
	.loc 1 537 0
	lw	$2,64($fp)
	sw	$2,20($fp)
	j	.L36
	nop

.L35:
	.loc 1 540 0
	lw	$2,64($fp)
	sw	$2,16($fp)
	.loc 1 541 0
	lw	$2,%gp_rel(xcoOledCur)($28)
	sw	$2,20($fp)
.L36:
	.loc 1 544 0
	lw	$3,%gp_rel(ycoOledCur)($28)
	lw	$2,68($fp)
	slt	$2,$3,$2
	beq	$2,$0,.L37
	nop

	.loc 1 545 0
	lw	$2,%gp_rel(ycoOledCur)($28)
	sw	$2,24($fp)
	.loc 1 546 0
	lw	$2,68($fp)
	sw	$2,28($fp)
	.loc 1 554 0
	j	.L39
	nop

.L37:
	.loc 1 549 0
	lw	$2,68($fp)
	sw	$2,24($fp)
	.loc 1 550 0
	lw	$2,%gp_rel(ycoOledCur)($28)
	sw	$2,28($fp)
	.loc 1 554 0
	j	.L39
	nop

.L43:
	.loc 1 558 0
	lw	$2,24($fp)
	addiu	$3,$2,7
	slt	$4,$2,0
	movn	$2,$3,$4
	sra	$2,$2,3
	sll	$3,$2,7
	lw	$2,16($fp)
	addu	$3,$3,$2
	lui	$2,%hi(rgbOledBmp)
	addiu	$2,$2,%lo(rgbOledBmp)
	addu	$2,$3,$2
	sw	$2,48($fp)
	.loc 1 563 0
	lw	$2,24($fp)
	andi	$2,$2,0x7
	li	$3,1			# 0x1
	sll	$2,$3,$2
	andi	$2,$2,0x00ff
	addiu	$2,$2,-1
	sb	$2,44($fp)
	.loc 1 570 0
	lw	$2,24($fp)
	addiu	$3,$2,7
	slt	$4,$2,0
	movn	$2,$3,$4
	sra	$2,$2,3
	move	$3,$2
	lw	$2,28($fp)
	addiu	$4,$2,7
	slt	$5,$2,0
	movn	$2,$4,$5
	sra	$2,$2,3
	bne	$3,$2,.L40
	nop

	.loc 1 571 0
	lw	$2,28($fp)
	andi	$2,$2,0x7
	addiu	$2,$2,1
	li	$3,1			# 0x1
	sll	$2,$3,$2
	andi	$2,$2,0x00ff
	subu	$2,$0,$2
	andi	$2,$2,0x00ff
	seb	$3,$2
	lb	$2,44($fp)
	or	$2,$3,$2
	seb	$2,$2
	sb	$2,44($fp)
.L40:
	.loc 1 573 0
	lw	$2,16($fp)
	andi	$2,$2,0x7
	sw	$2,32($fp)
	.loc 1 574 0
	lw	$2,16($fp)
	sw	$2,40($fp)
	.loc 1 575 0
	lw	$2,48($fp)
	sw	$2,36($fp)
	.loc 1 580 0
	j	.L41
	nop

.L42:
	.loc 1 581 0
	lw	$2,%gp_rel(pfnDoRop)($28)
	lw	$4,%gp_rel(pbOledPatCur)($28)
	lw	$3,32($fp)
	addu	$3,$4,$3
	lbu	$3,0($3)
	move	$4,$3
	lw	$3,36($fp)
	lbu	$3,0($3)
	move	$5,$3
	lbu	$3,44($fp)
	nor	$3,$0,$3
	andi	$3,$3,0x00ff
	move	$6,$3
	jalr	$2
	nop

	move	$3,$2
	lw	$2,36($fp)
	sb	$3,0($2)
	.loc 1 582 0
	lw	$2,40($fp)
	addiu	$2,$2,1
	sw	$2,40($fp)
	.loc 1 583 0
	lw	$2,36($fp)
	addiu	$2,$2,1
	sw	$2,36($fp)
	.loc 1 584 0
	lw	$2,32($fp)
	addiu	$2,$2,1
	sw	$2,32($fp)
	.loc 1 585 0
	lw	$2,32($fp)
	slt	$2,$2,8
	bne	$2,$0,.L41
	nop

	.loc 1 586 0
	sw	$0,32($fp)
.L41:
	.loc 1 580 0
	lw	$3,40($fp)
	lw	$2,20($fp)
	slt	$2,$2,$3
	beq	$2,$0,.L42
	nop

	.loc 1 592 0
	lw	$2,24($fp)
	addiu	$3,$2,7
	slt	$4,$2,0
	movn	$2,$3,$4
	sra	$2,$2,3
	addiu	$2,$2,1
	sll	$2,$2,3
	sw	$2,24($fp)
.L39:
	.loc 1 554 0
	lw	$3,24($fp)
	lw	$2,28($fp)
	slt	$2,$2,$3
	beq	$2,$0,.L43
	nop

	.loc 1 596 0
	move	$sp,$fp
.LCFI35 = .
	.cfi_def_cfa_register 29
	lw	$31,60($sp)
	lw	$fp,56($sp)
	addiu	$sp,$sp,64
	j	$31
	nop

	.set	macro
	.set	reorder
# Begin mchp_output_function_epilogue
# End mchp_output_function_epilogue
	.end	OledFillRect
	.cfi_endproc
.LFE13:
	.size	OledFillRect, .-OledFillRect
	.align	2
	.globl	OledGetBmp
.LFB14 = .
	.loc 1 622 0
	.cfi_startproc
	.set	nomips16
	.set	nomicromips
	.ent	OledGetBmp
	.type	OledGetBmp, @function
OledGetBmp:
	.frame	$fp,56,$31		# vars= 48, regs= 1/0, args= 0, gp= 0
	.mask	0x40000000,-4
	.fmask	0x00000000,0
	.set	noreorder
	.set	nomacro
# End mchp_output_function_prologue
	addiu	$sp,$sp,-56
.LCFI36 = .
	.cfi_def_cfa_offset 56
	sw	$fp,52($sp)
	.cfi_offset 30, -4
	move	$fp,$sp
.LCFI37 = .
	.cfi_def_cfa_register 30
	sw	$4,56($fp)
	sw	$5,60($fp)
	sw	$6,64($fp)
	.loc 1 638 0
	lw	$2,%gp_rel(xcoOledCur)($28)
	sw	$2,36($fp)
	.loc 1 639 0
	lw	$3,36($fp)
	lw	$2,56($fp)
	addu	$2,$3,$2
	sw	$2,0($fp)
	.loc 1 640 0
	lw	$2,0($fp)
	slt	$2,$2,128
	bne	$2,$0,.L45
	nop

	.loc 1 641 0
	li	$2,127			# 0x7f
	sw	$2,0($fp)
.L45:
	.loc 1 644 0
	lw	$2,%gp_rel(ycoOledCur)($28)
	sw	$2,4($fp)
	.loc 1 645 0
	lw	$3,4($fp)
	lw	$2,60($fp)
	addu	$2,$3,$2
	sw	$2,8($fp)
	.loc 1 646 0
	lw	$2,8($fp)
	slt	$2,$2,32
	bne	$2,$0,.L46
	nop

	.loc 1 647 0
	li	$2,31			# 0x1f
	sw	$2,8($fp)
.L46:
	.loc 1 650 0
	lw	$2,4($fp)
	andi	$2,$2,0x7
	sw	$2,40($fp)
	.loc 1 651 0
	lw	$2,4($fp)
	addiu	$3,$2,7
	slt	$4,$2,0
	movn	$2,$3,$4
	sra	$2,$2,3
	sll	$3,$2,7
	lw	$2,36($fp)
	addu	$3,$3,$2
	lui	$2,%hi(rgbOledBmp)
	addiu	$2,$2,%lo(rgbOledBmp)
	addu	$2,$3,$2
	sw	$2,16($fp)
	.loc 1 652 0
	lw	$2,64($fp)
	sw	$2,24($fp)
	.loc 1 654 0
	j	.L47
	nop

.L56:
	.loc 1 656 0
	lw	$2,4($fp)
	addiu	$3,$2,7
	slt	$4,$2,0
	movn	$2,$3,$4
	sra	$2,$2,3
	move	$3,$2
	lw	$2,8($fp)
	addiu	$2,$2,-1
	addiu	$4,$2,7
	slt	$5,$2,0
	movn	$2,$4,$5
	sra	$2,$2,3
	bne	$3,$2,.L48
	nop

	.loc 1 657 0
	lw	$2,8($fp)
	addiu	$2,$2,-1
	andi	$2,$2,0x7
	addiu	$2,$2,1
	li	$3,1			# 0x1
	sll	$2,$3,$2
	andi	$2,$2,0x00ff
	addiu	$2,$2,-1
	sb	$2,32($fp)
	j	.L49
	nop

.L48:
	.loc 1 660 0
	li	$2,-1			# 0xffffffffffffffff
	sb	$2,32($fp)
.L49:
	.loc 1 663 0
	lw	$2,36($fp)
	sw	$2,28($fp)
	.loc 1 664 0
	lw	$2,16($fp)
	sw	$2,12($fp)
	.loc 1 665 0
	lw	$2,24($fp)
	sw	$2,20($fp)
	.loc 1 670 0
	lw	$2,40($fp)
	bne	$2,$0,.L50
	nop

	.loc 1 671 0
	j	.L51
	nop

.L52:
	.loc 1 672 0
	lw	$2,12($fp)
	lbu	$3,0($2)
	lbu	$2,32($fp)
	and	$2,$3,$2
	andi	$3,$2,0x00ff
	lw	$2,20($fp)
	sb	$3,0($2)
	.loc 1 673 0
	lw	$2,28($fp)
	addiu	$2,$2,1
	sw	$2,28($fp)
	.loc 1 674 0
	lw	$2,20($fp)
	addiu	$2,$2,1
	sw	$2,20($fp)
	.loc 1 675 0
	lw	$2,12($fp)
	addiu	$2,$2,1
	sw	$2,12($fp)
.L51:
	.loc 1 671 0
	lw	$3,28($fp)
	lw	$2,0($fp)
	slt	$2,$3,$2
	bne	$2,$0,.L52
	nop

	j	.L53
	nop

.L50:
	.loc 1 679 0
	j	.L54
	nop

.L55:
	.loc 1 680 0
	lw	$2,12($fp)
	lbu	$2,0($2)
	sb	$2,44($fp)
	.loc 1 681 0
	lw	$2,12($fp)
	lbu	$2,128($2)
	sb	$2,44($fp)
	.loc 1 682 0
	lw	$2,12($fp)
	lbu	$2,0($2)
	move	$3,$2
	lw	$2,40($fp)
	sra	$2,$3,$2
	seb	$3,$2
	.loc 1 683 0
	lw	$2,12($fp)
	addiu	$2,$2,128
	lbu	$2,0($2)
	move	$4,$2
	li	$5,8			# 0x8
	lw	$2,40($fp)
	subu	$2,$5,$2
	sll	$2,$4,$2
	.loc 1 682 0
	seb	$2,$2
	or	$2,$3,$2
	seb	$3,$2
	lb	$2,32($fp)
	and	$2,$3,$2
	seb	$2,$2
	andi	$3,$2,0x00ff
	lw	$2,20($fp)
	sb	$3,0($2)
	.loc 1 684 0
	lw	$2,28($fp)
	addiu	$2,$2,1
	sw	$2,28($fp)
	.loc 1 685 0
	lw	$2,20($fp)
	addiu	$2,$2,1
	sw	$2,20($fp)
	.loc 1 686 0
	lw	$2,12($fp)
	addiu	$2,$2,1
	sw	$2,12($fp)
.L54:
	.loc 1 679 0
	lw	$3,28($fp)
	lw	$2,0($fp)
	slt	$2,$3,$2
	bne	$2,$0,.L55
	nop

.L53:
	.loc 1 692 0
	lw	$2,4($fp)
	addiu	$2,$2,8
	sw	$2,4($fp)
	.loc 1 693 0
	lw	$2,16($fp)
	addiu	$2,$2,128
	sw	$2,16($fp)
	.loc 1 694 0
	lw	$2,56($fp)
	lw	$3,24($fp)
	addu	$2,$3,$2
	sw	$2,24($fp)
.L47:
	.loc 1 654 0
	lw	$3,4($fp)
	lw	$2,8($fp)
	slt	$2,$3,$2
	bne	$2,$0,.L56
	nop

	.loc 1 698 0
	move	$sp,$fp
.LCFI38 = .
	.cfi_def_cfa_register 29
	lw	$fp,52($sp)
	addiu	$sp,$sp,56
	j	$31
	nop

	.set	macro
	.set	reorder
# Begin mchp_output_function_epilogue
# End mchp_output_function_epilogue
	.end	OledGetBmp
	.cfi_endproc
.LFE14:
	.size	OledGetBmp, .-OledGetBmp
	.align	2
	.globl	OledPutBmp
.LFB15 = .
	.loc 1 721 0
	.cfi_startproc
	.set	nomips16
	.set	nomicromips
	.ent	OledPutBmp
	.type	OledPutBmp, @function
OledPutBmp:
	.frame	$fp,80,$31		# vars= 56, regs= 2/0, args= 16, gp= 0
	.mask	0xc0000000,-4
	.fmask	0x00000000,0
	.set	noreorder
	.set	nomacro
# End mchp_output_function_prologue
	addiu	$sp,$sp,-80
.LCFI39 = .
	.cfi_def_cfa_offset 80
	sw	$31,76($sp)
	sw	$fp,72($sp)
	.cfi_offset 31, -4
	.cfi_offset 30, -8
	move	$fp,$sp
.LCFI40 = .
	.cfi_def_cfa_register 30
	sw	$4,80($fp)
	sw	$5,84($fp)
	sw	$6,88($fp)
	.loc 1 742 0
	lw	$2,%gp_rel(xcoOledCur)($28)
	sw	$2,56($fp)
	.loc 1 743 0
	lw	$3,56($fp)
	lw	$2,80($fp)
	addu	$2,$3,$2
	sw	$2,16($fp)
	.loc 1 744 0
	lw	$2,16($fp)
	slt	$2,$2,128
	bne	$2,$0,.L58
	nop

	.loc 1 745 0
	li	$2,127			# 0x7f
	sw	$2,16($fp)
.L58:
	.loc 1 748 0
	lw	$2,%gp_rel(ycoOledCur)($28)
	sw	$2,20($fp)
	.loc 1 749 0
	lw	$3,20($fp)
	lw	$2,84($fp)
	addu	$2,$3,$2
	sw	$2,24($fp)
	.loc 1 750 0
	lw	$2,24($fp)
	slt	$2,$2,32
	bne	$2,$0,.L59
	nop

	.loc 1 751 0
	li	$2,31			# 0x1f
	sw	$2,24($fp)
.L59:
	.loc 1 754 0
	lw	$2,20($fp)
	andi	$2,$2,0x7
	sw	$2,60($fp)
	.loc 1 755 0
	li	$3,1			# 0x1
	lw	$2,60($fp)
	sll	$2,$3,$2
	andi	$2,$2,0x00ff
	addiu	$2,$2,-1
	sb	$2,64($fp)
	.loc 1 756 0
	lbu	$2,64($fp)
	nor	$2,$0,$2
	sb	$2,65($fp)
	.loc 1 757 0
	lw	$2,20($fp)
	addiu	$3,$2,7
	slt	$4,$2,0
	movn	$2,$3,$4
	sra	$2,$2,3
	sll	$3,$2,7
	lw	$2,56($fp)
	addu	$3,$3,$2
	lui	$2,%hi(rgbOledBmp)
	addiu	$2,$2,%lo(rgbOledBmp)
	addu	$2,$3,$2
	sw	$2,32($fp)
	.loc 1 758 0
	lw	$2,88($fp)
	sw	$2,40($fp)
	.loc 1 759 0
	li	$2,1			# 0x1
	sw	$2,52($fp)
	.loc 1 761 0
	j	.L60
	nop

.L71:
	.loc 1 767 0
	lw	$2,20($fp)
	addiu	$3,$2,7
	slt	$4,$2,0
	movn	$2,$3,$4
	sra	$2,$2,3
	move	$3,$2
	lw	$2,24($fp)
	addiu	$2,$2,-1
	addiu	$4,$2,7
	slt	$5,$2,0
	movn	$2,$4,$5
	sra	$2,$2,3
	bne	$3,$2,.L61
	nop

	.loc 1 768 0
	lw	$2,24($fp)
	addiu	$2,$2,-1
	andi	$2,$2,0x7
	addiu	$2,$2,1
	li	$3,1			# 0x1
	sll	$2,$3,$2
	andi	$2,$2,0x00ff
	addiu	$2,$2,-1
	sb	$2,49($fp)
	j	.L62
	nop

.L61:
	.loc 1 771 0
	li	$2,-1			# 0xffffffffffffffff
	sb	$2,49($fp)
.L62:
	.loc 1 773 0
	lw	$2,52($fp)
	beq	$2,$0,.L63
	nop

	.loc 1 774 0
	lb	$2,64($fp)
	nor	$2,$0,$2
	seb	$3,$2
	lb	$2,49($fp)
	and	$2,$3,$2
	seb	$2,$2
	sb	$2,49($fp)
.L63:
	.loc 1 777 0
	lw	$2,56($fp)
	sw	$2,44($fp)
	.loc 1 778 0
	lw	$2,32($fp)
	sw	$2,28($fp)
	.loc 1 779 0
	lw	$2,40($fp)
	sw	$2,36($fp)
	.loc 1 784 0
	lw	$2,60($fp)
	bne	$2,$0,.L64
	nop

	.loc 1 785 0
	j	.L65
	nop

.L66:
	.loc 1 786 0
	lw	$2,%gp_rel(pfnDoRop)($28)
	lw	$3,36($fp)
	lbu	$3,0($3)
	move	$4,$3
	lw	$3,28($fp)
	lbu	$3,0($3)
	move	$5,$3
	lbu	$3,49($fp)
	move	$6,$3
	jalr	$2
	nop

	move	$3,$2
	lw	$2,28($fp)
	sb	$3,0($2)
	.loc 1 787 0
	lw	$2,44($fp)
	addiu	$2,$2,1
	sw	$2,44($fp)
	.loc 1 788 0
	lw	$2,28($fp)
	addiu	$2,$2,1
	sw	$2,28($fp)
	.loc 1 789 0
	lw	$2,36($fp)
	addiu	$2,$2,1
	sw	$2,36($fp)
.L65:
	.loc 1 785 0
	lw	$3,44($fp)
	lw	$2,16($fp)
	slt	$2,$3,$2
	bne	$2,$0,.L66
	nop

	j	.L67
	nop

.L64:
	.loc 1 793 0
	j	.L68
	nop

.L70:
	.loc 1 794 0
	lw	$2,36($fp)
	lbu	$2,0($2)
	move	$3,$2
	lw	$2,60($fp)
	sll	$2,$3,$2
	sb	$2,48($fp)
	.loc 1 795 0
	lw	$2,52($fp)
	bne	$2,$0,.L69
	nop

	.loc 1 796 0
	lw	$2,80($fp)
	subu	$2,$0,$2
	lw	$3,36($fp)
	addu	$2,$3,$2
	lbu	$2,0($2)
	move	$3,$2
	li	$4,8			# 0x8
	lw	$2,60($fp)
	subu	$2,$4,$2
	sra	$2,$3,$2
	seb	$3,$2
	lb	$2,65($fp)
	nor	$2,$0,$2
	seb	$2,$2
	and	$2,$3,$2
	seb	$3,$2
	lb	$2,48($fp)
	or	$2,$3,$2
	seb	$2,$2
	sb	$2,48($fp)
.L69:
	.loc 1 798 0
	lbu	$3,48($fp)
	lbu	$2,49($fp)
	and	$2,$3,$2
	sb	$2,48($fp)
	.loc 1 799 0
	lw	$2,%gp_rel(pfnDoRop)($28)
	lbu	$4,48($fp)
	lw	$3,28($fp)
	lbu	$3,0($3)
	move	$5,$3
	lbu	$3,49($fp)
	move	$6,$3
	jalr	$2
	nop

	move	$3,$2
	lw	$2,28($fp)
	sb	$3,0($2)
	.loc 1 800 0
	lw	$2,44($fp)
	addiu	$2,$2,1
	sw	$2,44($fp)
	.loc 1 801 0
	lw	$2,28($fp)
	addiu	$2,$2,1
	sw	$2,28($fp)
	.loc 1 802 0
	lw	$2,36($fp)
	addiu	$2,$2,1
	sw	$2,36($fp)
.L68:
	.loc 1 793 0
	lw	$3,44($fp)
	lw	$2,16($fp)
	slt	$2,$3,$2
	bne	$2,$0,.L70
	nop

.L67:
	.loc 1 808 0
	lw	$2,20($fp)
	addiu	$3,$2,7
	slt	$4,$2,0
	movn	$2,$3,$4
	sra	$2,$2,3
	addiu	$2,$2,1
	sll	$2,$2,3
	sw	$2,20($fp)
	.loc 1 809 0
	lw	$2,32($fp)
	addiu	$2,$2,128
	sw	$2,32($fp)
	.loc 1 810 0
	lw	$2,80($fp)
	lw	$3,40($fp)
	addu	$2,$3,$2
	sw	$2,40($fp)
	.loc 1 811 0
	sw	$0,52($fp)
.L60:
	.loc 1 761 0
	lw	$3,20($fp)
	lw	$2,24($fp)
	slt	$2,$3,$2
	bne	$2,$0,.L71
	nop

	.loc 1 815 0
	move	$sp,$fp
.LCFI41 = .
	.cfi_def_cfa_register 29
	lw	$31,76($sp)
	lw	$fp,72($sp)
	addiu	$sp,$sp,80
	j	$31
	nop

	.set	macro
	.set	reorder
# Begin mchp_output_function_epilogue
# End mchp_output_function_epilogue
	.end	OledPutBmp
	.cfi_endproc
.LFE15:
	.size	OledPutBmp, .-OledPutBmp
	.align	2
	.globl	OledDrawChar
.LFB16 = .
	.loc 1 836 0
	.cfi_startproc
	.set	nomips16
	.set	nomicromips
	.ent	OledDrawChar
	.type	OledDrawChar, @function
OledDrawChar:
	.frame	$fp,32,$31		# vars= 8, regs= 2/0, args= 16, gp= 0
	.mask	0xc0000000,-4
	.fmask	0x00000000,0
	.set	noreorder
	.set	nomacro
# End mchp_output_function_prologue
	addiu	$sp,$sp,-32
.LCFI42 = .
	.cfi_def_cfa_offset 32
	sw	$31,28($sp)
	sw	$fp,24($sp)
	.cfi_offset 31, -4
	.cfi_offset 30, -8
	move	$fp,$sp
.LCFI43 = .
	.cfi_def_cfa_register 30
	move	$2,$4
	sb	$2,32($fp)
	.loc 1 841 0
	lb	$2,32($fp)
	bgez	$2,.L73
	nop

	.loc 1 842 0
	j	.L72
	nop

.L73:
	.loc 1 845 0
	lb	$2,32($fp)
	slt	$2,$2,32
	beq	$2,$0,.L75
	nop

	.loc 1 846 0
	lw	$3,%gp_rel(pbOledFontUser)($28)
	lb	$2,32($fp)
	sll	$2,$2,3
	addu	$2,$3,$2
	sw	$2,16($fp)
	j	.L76
	nop

.L75:
	.loc 1 848 0
	lb	$2,32($fp)
	bltz	$2,.L76
	nop

	.loc 1 849 0
	lw	$3,%gp_rel(pbOledFontCur)($28)
	lb	$2,32($fp)
	addiu	$2,$2,-32
	sll	$2,$2,3
	addu	$2,$3,$2
	sw	$2,16($fp)
.L76:
	.loc 1 852 0
	lw	$2,%gp_rel(pbOledCur)($28)
	sw	$2,20($fp)
	.loc 1 854 0
	lw	$3,%gp_rel(dxcoOledFontCur)($28)
	lw	$2,%gp_rel(dycoOledFontCur)($28)
	move	$4,$3
	move	$5,$2
	lw	$6,16($fp)
	jal	OledPutBmp
	nop

	.loc 1 856 0
	lw	$3,%gp_rel(xcoOledCur)($28)
	lw	$2,%gp_rel(dxcoOledFontCur)($28)
	addu	$2,$3,$2
	sw	$2,%gp_rel(xcoOledCur)($28)
.L72:
	.loc 1 858 0
	move	$sp,$fp
.LCFI44 = .
	.cfi_def_cfa_register 29
	lw	$31,28($sp)
	lw	$fp,24($sp)
	addiu	$sp,$sp,32
	j	$31
	nop

	.set	macro
	.set	reorder
# Begin mchp_output_function_epilogue
# End mchp_output_function_epilogue
	.end	OledDrawChar
	.cfi_endproc
.LFE16:
	.size	OledDrawChar, .-OledDrawChar
	.align	2
	.globl	OledDrawString
.LFB17 = .
	.loc 1 879 0
	.cfi_startproc
	.set	nomips16
	.set	nomicromips
	.ent	OledDrawString
	.type	OledDrawString, @function
OledDrawString:
	.frame	$fp,24,$31		# vars= 0, regs= 2/0, args= 16, gp= 0
	.mask	0xc0000000,-4
	.fmask	0x00000000,0
	.set	noreorder
	.set	nomacro
# End mchp_output_function_prologue
	addiu	$sp,$sp,-24
.LCFI45 = .
	.cfi_def_cfa_offset 24
	sw	$31,20($sp)
	sw	$fp,16($sp)
	.cfi_offset 31, -4
	.cfi_offset 30, -8
	move	$fp,$sp
.LCFI46 = .
	.cfi_def_cfa_register 30
	sw	$4,24($fp)
	.loc 1 881 0
	j	.L78
	nop

.L79:
	.loc 1 882 0
	lw	$2,24($fp)
	lb	$2,0($2)
	move	$4,$2
	jal	OledDrawChar
	nop

	.loc 1 883 0
	lw	$2,24($fp)
	addiu	$2,$2,1
	sw	$2,24($fp)
.L78:
	.loc 1 881 0
	lw	$2,24($fp)
	lb	$2,0($2)
	bne	$2,$0,.L79
	nop

	.loc 1 885 0
	move	$sp,$fp
.LCFI47 = .
	.cfi_def_cfa_register 29
	lw	$31,20($sp)
	lw	$fp,16($sp)
	addiu	$sp,$sp,24
	j	$31
	nop

	.set	macro
	.set	reorder
# Begin mchp_output_function_epilogue
# End mchp_output_function_epilogue
	.end	OledDrawString
	.cfi_endproc
.LFE17:
	.size	OledDrawString, .-OledDrawString
	.align	2
	.globl	OledRopSet
.LFB18 = .
	.loc 1 904 0
	.cfi_startproc
	.set	nomips16
	.set	nomicromips
	.ent	OledRopSet
	.type	OledRopSet, @function
OledRopSet:
	.frame	$fp,8,$31		# vars= 0, regs= 1/0, args= 0, gp= 0
	.mask	0x40000000,-4
	.fmask	0x00000000,0
	.set	noreorder
	.set	nomacro
# End mchp_output_function_prologue
	addiu	$sp,$sp,-8
.LCFI48 = .
	.cfi_def_cfa_offset 8
	sw	$fp,4($sp)
	.cfi_offset 30, -4
	move	$fp,$sp
.LCFI49 = .
	.cfi_def_cfa_register 30
	move	$3,$5
	move	$2,$6
	sb	$4,8($fp)
	sb	$3,12($fp)
	sb	$2,16($fp)
	.loc 1 906 0
	lb	$2,16($fp)
	nor	$2,$0,$2
	seb	$3,$2
	lb	$2,12($fp)
	and	$2,$3,$2
	seb	$3,$2
	lbu	$4,8($fp)
	lbu	$2,16($fp)
	and	$2,$4,$2
	andi	$2,$2,0x00ff
	seb	$2,$2
	or	$2,$3,$2
	seb	$2,$2
	andi	$2,$2,0x00ff
	.loc 1 908 0
	move	$sp,$fp
.LCFI50 = .
	.cfi_def_cfa_register 29
	lw	$fp,4($sp)
	addiu	$sp,$sp,8
	j	$31
	nop

	.set	macro
	.set	reorder
# Begin mchp_output_function_epilogue
# End mchp_output_function_epilogue
	.end	OledRopSet
	.cfi_endproc
.LFE18:
	.size	OledRopSet, .-OledRopSet
	.align	2
	.globl	OledRopOr
.LFB19 = .
	.loc 1 925 0
	.cfi_startproc
	.set	nomips16
	.set	nomicromips
	.ent	OledRopOr
	.type	OledRopOr, @function
OledRopOr:
	.frame	$fp,8,$31		# vars= 0, regs= 1/0, args= 0, gp= 0
	.mask	0x40000000,-4
	.fmask	0x00000000,0
	.set	noreorder
	.set	nomacro
# End mchp_output_function_prologue
	addiu	$sp,$sp,-8
.LCFI51 = .
	.cfi_def_cfa_offset 8
	sw	$fp,4($sp)
	.cfi_offset 30, -4
	move	$fp,$sp
.LCFI52 = .
	.cfi_def_cfa_register 30
	move	$3,$5
	move	$2,$6
	sb	$4,8($fp)
	sb	$3,12($fp)
	sb	$2,16($fp)
	.loc 1 927 0
	lbu	$3,8($fp)
	lbu	$2,16($fp)
	and	$2,$3,$2
	andi	$3,$2,0x00ff
	lbu	$2,12($fp)
	or	$2,$3,$2
	andi	$2,$2,0x00ff
	.loc 1 929 0
	move	$sp,$fp
.LCFI53 = .
	.cfi_def_cfa_register 29
	lw	$fp,4($sp)
	addiu	$sp,$sp,8
	j	$31
	nop

	.set	macro
	.set	reorder
# Begin mchp_output_function_epilogue
# End mchp_output_function_epilogue
	.end	OledRopOr
	.cfi_endproc
.LFE19:
	.size	OledRopOr, .-OledRopOr
	.align	2
	.globl	OledRopAnd
.LFB20 = .
	.loc 1 946 0
	.cfi_startproc
	.set	nomips16
	.set	nomicromips
	.ent	OledRopAnd
	.type	OledRopAnd, @function
OledRopAnd:
	.frame	$fp,8,$31		# vars= 0, regs= 1/0, args= 0, gp= 0
	.mask	0x40000000,-4
	.fmask	0x00000000,0
	.set	noreorder
	.set	nomacro
# End mchp_output_function_prologue
	addiu	$sp,$sp,-8
.LCFI54 = .
	.cfi_def_cfa_offset 8
	sw	$fp,4($sp)
	.cfi_offset 30, -4
	move	$fp,$sp
.LCFI55 = .
	.cfi_def_cfa_register 30
	move	$3,$5
	move	$2,$6
	sb	$4,8($fp)
	sb	$3,12($fp)
	sb	$2,16($fp)
	.loc 1 948 0
	lbu	$3,8($fp)
	lbu	$2,16($fp)
	and	$2,$3,$2
	andi	$3,$2,0x00ff
	lbu	$2,12($fp)
	and	$2,$3,$2
	andi	$2,$2,0x00ff
	.loc 1 950 0
	move	$sp,$fp
.LCFI56 = .
	.cfi_def_cfa_register 29
	lw	$fp,4($sp)
	addiu	$sp,$sp,8
	j	$31
	nop

	.set	macro
	.set	reorder
# Begin mchp_output_function_epilogue
# End mchp_output_function_epilogue
	.end	OledRopAnd
	.cfi_endproc
.LFE20:
	.size	OledRopAnd, .-OledRopAnd
	.align	2
	.globl	OledRopXor
.LFB21 = .
	.loc 1 967 0
	.cfi_startproc
	.set	nomips16
	.set	nomicromips
	.ent	OledRopXor
	.type	OledRopXor, @function
OledRopXor:
	.frame	$fp,8,$31		# vars= 0, regs= 1/0, args= 0, gp= 0
	.mask	0x40000000,-4
	.fmask	0x00000000,0
	.set	noreorder
	.set	nomacro
# End mchp_output_function_prologue
	addiu	$sp,$sp,-8
.LCFI57 = .
	.cfi_def_cfa_offset 8
	sw	$fp,4($sp)
	.cfi_offset 30, -4
	move	$fp,$sp
.LCFI58 = .
	.cfi_def_cfa_register 30
	move	$3,$5
	move	$2,$6
	sb	$4,8($fp)
	sb	$3,12($fp)
	sb	$2,16($fp)
	.loc 1 969 0
	lbu	$3,8($fp)
	lbu	$2,16($fp)
	and	$2,$3,$2
	andi	$3,$2,0x00ff
	lbu	$2,12($fp)
	xor	$2,$3,$2
	andi	$2,$2,0x00ff
	.loc 1 971 0
	move	$sp,$fp
.LCFI59 = .
	.cfi_def_cfa_register 29
	lw	$fp,4($sp)
	addiu	$sp,$sp,8
	j	$31
	nop

	.set	macro
	.set	reorder
# Begin mchp_output_function_epilogue
# End mchp_output_function_epilogue
	.end	OledRopXor
	.cfi_endproc
.LFE21:
	.size	OledRopXor, .-OledRopXor
	.align	2
	.globl	OledMoveUp
.LFB22 = .
	.loc 1 992 0
	.cfi_startproc
	.set	nomips16
	.set	nomicromips
	.ent	OledMoveUp
	.type	OledMoveUp, @function
OledMoveUp:
	.frame	$fp,8,$31		# vars= 0, regs= 1/0, args= 0, gp= 0
	.mask	0x40000000,-4
	.fmask	0x00000000,0
	.set	noreorder
	.set	nomacro
# End mchp_output_function_prologue
	addiu	$sp,$sp,-8
.LCFI60 = .
	.cfi_def_cfa_offset 8
	sw	$fp,4($sp)
	.cfi_offset 30, -4
	move	$fp,$sp
.LCFI61 = .
	.cfi_def_cfa_register 30
	.loc 1 996 0
	lw	$2,%gp_rel(bnOledCur)($28)
	addiu	$2,$2,-1
	sw	$2,%gp_rel(bnOledCur)($28)
	.loc 1 1001 0
	lw	$2,%gp_rel(bnOledCur)($28)
	bgez	$2,.L88
	nop

	.loc 1 1002 0
	li	$2,7			# 0x7
	sw	$2,%gp_rel(bnOledCur)($28)
	.loc 1 1003 0
	lw	$2,%gp_rel(pbOledCur)($28)
	addiu	$2,$2,-128
	sw	$2,%gp_rel(pbOledCur)($28)
	.loc 1 1007 0
	lw	$3,%gp_rel(pbOledCur)($28)
	lui	$2,%hi(rgbOledBmp)
	addiu	$2,$2,%lo(rgbOledBmp)
	sltu	$2,$3,$2
	beq	$2,$0,.L88
	nop

	.loc 1 1008 0
	lw	$2,%gp_rel(pbOledCur)($28)
	addiu	$2,$2,128
	sw	$2,%gp_rel(pbOledCur)($28)
.L88:
	.loc 1 1011 0
	move	$sp,$fp
.LCFI62 = .
	.cfi_def_cfa_register 29
	lw	$fp,4($sp)
	addiu	$sp,$sp,8
	j	$31
	nop

	.set	macro
	.set	reorder
# Begin mchp_output_function_epilogue
# End mchp_output_function_epilogue
	.end	OledMoveUp
	.cfi_endproc
.LFE22:
	.size	OledMoveUp, .-OledMoveUp
	.align	2
	.globl	OledMoveDown
.LFB23 = .
	.loc 1 1032 0
	.cfi_startproc
	.set	nomips16
	.set	nomicromips
	.ent	OledMoveDown
	.type	OledMoveDown, @function
OledMoveDown:
	.frame	$fp,8,$31		# vars= 0, regs= 1/0, args= 0, gp= 0
	.mask	0x40000000,-4
	.fmask	0x00000000,0
	.set	noreorder
	.set	nomacro
# End mchp_output_function_prologue
	addiu	$sp,$sp,-8
.LCFI63 = .
	.cfi_def_cfa_offset 8
	sw	$fp,4($sp)
	.cfi_offset 30, -4
	move	$fp,$sp
.LCFI64 = .
	.cfi_def_cfa_register 30
	.loc 1 1036 0
	lw	$2,%gp_rel(bnOledCur)($28)
	addiu	$2,$2,1
	sw	$2,%gp_rel(bnOledCur)($28)
	.loc 1 1041 0
	lw	$2,%gp_rel(bnOledCur)($28)
	slt	$2,$2,8
	bne	$2,$0,.L90
	nop

	.loc 1 1042 0
	sw	$0,%gp_rel(bnOledCur)($28)
	.loc 1 1043 0
	lw	$2,%gp_rel(pbOledCur)($28)
	addiu	$2,$2,128
	sw	$2,%gp_rel(pbOledCur)($28)
	.loc 1 1047 0
	lw	$3,%gp_rel(pbOledCur)($28)
	lui	$2,%hi(rgbOledBmp+512)
	addiu	$2,$2,%lo(rgbOledBmp+512)
	sltu	$2,$3,$2
	bne	$2,$0,.L90
	nop

	.loc 1 1048 0
	lw	$2,%gp_rel(pbOledCur)($28)
	addiu	$2,$2,-128
	sw	$2,%gp_rel(pbOledCur)($28)
.L90:
	.loc 1 1051 0
	move	$sp,$fp
.LCFI65 = .
	.cfi_def_cfa_register 29
	lw	$fp,4($sp)
	addiu	$sp,$sp,8
	j	$31
	nop

	.set	macro
	.set	reorder
# Begin mchp_output_function_epilogue
# End mchp_output_function_epilogue
	.end	OledMoveDown
	.cfi_endproc
.LFE23:
	.size	OledMoveDown, .-OledMoveDown
	.align	2
	.globl	OledMoveLeft
.LFB24 = .
	.loc 1 1072 0
	.cfi_startproc
	.set	nomips16
	.set	nomicromips
	.ent	OledMoveLeft
	.type	OledMoveLeft, @function
OledMoveLeft:
	.frame	$fp,8,$31		# vars= 0, regs= 1/0, args= 0, gp= 0
	.mask	0x40000000,-4
	.fmask	0x00000000,0
	.set	noreorder
	.set	nomacro
# End mchp_output_function_prologue
	addiu	$sp,$sp,-8
.LCFI66 = .
	.cfi_def_cfa_offset 8
	sw	$fp,4($sp)
	.cfi_offset 30, -4
	move	$fp,$sp
.LCFI67 = .
	.cfi_def_cfa_register 30
	.loc 1 1076 0
	lw	$2,%gp_rel(pbOledCur)($28)
	move	$3,$2
	lui	$2,%hi(rgbOledBmp)
	addiu	$2,$2,%lo(rgbOledBmp)
	subu	$2,$3,$2
	andi	$2,$2,0x7f
	bne	$2,$0,.L93
	nop

	.loc 1 1077 0
	j	.L92
	nop

.L93:
	.loc 1 1082 0
	lw	$2,%gp_rel(pbOledCur)($28)
	addiu	$2,$2,-1
	sw	$2,%gp_rel(pbOledCur)($28)
.L92:
	.loc 1 1084 0
	move	$sp,$fp
.LCFI68 = .
	.cfi_def_cfa_register 29
	lw	$fp,4($sp)
	addiu	$sp,$sp,8
	j	$31
	nop

	.set	macro
	.set	reorder
# Begin mchp_output_function_epilogue
# End mchp_output_function_epilogue
	.end	OledMoveLeft
	.cfi_endproc
.LFE24:
	.size	OledMoveLeft, .-OledMoveLeft
	.align	2
	.globl	OledMoveRight
.LFB25 = .
	.loc 1 1105 0
	.cfi_startproc
	.set	nomips16
	.set	nomicromips
	.ent	OledMoveRight
	.type	OledMoveRight, @function
OledMoveRight:
	.frame	$fp,8,$31		# vars= 0, regs= 1/0, args= 0, gp= 0
	.mask	0x40000000,-4
	.fmask	0x00000000,0
	.set	noreorder
	.set	nomacro
# End mchp_output_function_prologue
	addiu	$sp,$sp,-8
.LCFI69 = .
	.cfi_def_cfa_offset 8
	sw	$fp,4($sp)
	.cfi_offset 30, -4
	move	$fp,$sp
.LCFI70 = .
	.cfi_def_cfa_register 30
	.loc 1 1109 0
	lw	$2,%gp_rel(pbOledCur)($28)
	move	$3,$2
	lui	$2,%hi(rgbOledBmp)
	addiu	$2,$2,%lo(rgbOledBmp)
	subu	$2,$3,$2
	andi	$3,$2,0x7f
	li	$2,127			# 0x7f
	bne	$3,$2,.L96
	nop

	.loc 1 1110 0
	j	.L95
	nop

.L96:
	.loc 1 1115 0
	lw	$2,%gp_rel(pbOledCur)($28)
	addiu	$2,$2,1
	sw	$2,%gp_rel(pbOledCur)($28)
.L95:
	.loc 1 1117 0
	move	$sp,$fp
.LCFI71 = .
	.cfi_def_cfa_register 29
	lw	$fp,4($sp)
	addiu	$sp,$sp,8
	j	$31
	nop

	.set	macro
	.set	reorder
# Begin mchp_output_function_epilogue
# End mchp_output_function_epilogue
	.end	OledMoveRight
	.cfi_endproc
.LFE25:
	.size	OledMoveRight, .-OledMoveRight
	.align	2
	.globl	OledClampXco
.LFB26 = .
	.loc 1 1137 0
	.cfi_startproc
	.set	nomips16
	.set	nomicromips
	.ent	OledClampXco
	.type	OledClampXco, @function
OledClampXco:
	.frame	$fp,8,$31		# vars= 0, regs= 1/0, args= 0, gp= 0
	.mask	0x40000000,-4
	.fmask	0x00000000,0
	.set	noreorder
	.set	nomacro
# End mchp_output_function_prologue
	addiu	$sp,$sp,-8
.LCFI72 = .
	.cfi_def_cfa_offset 8
	sw	$fp,4($sp)
	.cfi_offset 30, -4
	move	$fp,$sp
.LCFI73 = .
	.cfi_def_cfa_register 30
	sw	$4,8($fp)
	.loc 1 1138 0
	lw	$2,8($fp)
	bgez	$2,.L99
	nop

	.loc 1 1139 0
	sw	$0,8($fp)
.L99:
	.loc 1 1141 0
	lw	$2,8($fp)
	slt	$2,$2,128
	bne	$2,$0,.L100
	nop

	.loc 1 1142 0
	li	$2,127			# 0x7f
	sw	$2,8($fp)
.L100:
	.loc 1 1145 0
	lw	$2,8($fp)
	.loc 1 1147 0
	move	$sp,$fp
.LCFI74 = .
	.cfi_def_cfa_register 29
	lw	$fp,4($sp)
	addiu	$sp,$sp,8
	j	$31
	nop

	.set	macro
	.set	reorder
# Begin mchp_output_function_epilogue
# End mchp_output_function_epilogue
	.end	OledClampXco
	.cfi_endproc
.LFE26:
	.size	OledClampXco, .-OledClampXco
	.align	2
	.globl	OledClampYco
.LFB27 = .
	.loc 1 1167 0
	.cfi_startproc
	.set	nomips16
	.set	nomicromips
	.ent	OledClampYco
	.type	OledClampYco, @function
OledClampYco:
	.frame	$fp,8,$31		# vars= 0, regs= 1/0, args= 0, gp= 0
	.mask	0x40000000,-4
	.fmask	0x00000000,0
	.set	noreorder
	.set	nomacro
# End mchp_output_function_prologue
	addiu	$sp,$sp,-8
.LCFI75 = .
	.cfi_def_cfa_offset 8
	sw	$fp,4($sp)
	.cfi_offset 30, -4
	move	$fp,$sp
.LCFI76 = .
	.cfi_def_cfa_register 30
	sw	$4,8($fp)
	.loc 1 1168 0
	lw	$2,8($fp)
	bgez	$2,.L103
	nop

	.loc 1 1169 0
	sw	$0,8($fp)
.L103:
	.loc 1 1171 0
	lw	$2,8($fp)
	slt	$2,$2,32
	bne	$2,$0,.L104
	nop

	.loc 1 1172 0
	li	$2,31			# 0x1f
	sw	$2,8($fp)
.L104:
	.loc 1 1175 0
	lw	$2,8($fp)
	.loc 1 1177 0
	move	$sp,$fp
.LCFI77 = .
	.cfi_def_cfa_register 29
	lw	$fp,4($sp)
	addiu	$sp,$sp,8
	j	$31
	nop

	.set	macro
	.set	reorder
# Begin mchp_output_function_epilogue
# End mchp_output_function_epilogue
	.end	OledClampYco
	.cfi_endproc
.LFE27:
	.size	OledClampYco, .-OledClampYco
.Letext0:
	.file 2 "c:/program files/microchip/xc32/v1.42/pic32mx/include/machine/int_types.h"
	.file 3 "e:/\264\375\260\354\312\302\317\356/\315\352\263\311\312\257\300\317\312\246\264\363\321\247\274\306\273\256\310\316\316\361/cml/the-connected-mcu-lab--v1.5-12oct2016-chn/release/modules/12_performance/demo12_optimization/src/oled/oled.h"