	.section .mdebug.abi32
	.previous
	.gnu_attribute 4, 4
	.section	.text,code
.Ltext0:
	.cfi_sections	.debug_frame
	.align	2
	.globl	InitGPIO
.LFB2 = .
	.file 1 "e:/modules/7_communication/demo7_comm_uart/user.c"
	.loc 1 19 0
	.cfi_startproc
	.set	nomips16
	.set	nomicromips
	.ent	InitGPIO
	.type	InitGPIO, @function
InitGPIO:
	.frame	$fp,8,$31		# vars= 0, regs= 1/0, args= 0, gp= 0
	.mask	0x40000000,-4
	.fmask	0x00000000,0
	.set	noreorder
	.set	nomacro
# End mchp_output_function_prologue
	addiu	$sp,$sp,-8
.LCFI0 = .
	.cfi_def_cfa_offset 8
	sw	$fp,4($sp)
	.cfi_offset 30, -4
	move	$fp,$sp
.LCFI1 = .
	.cfi_def_cfa_register 30
	.loc 1 23 0
	lui	$3,%hi(ANSELG)
	lhu	$2,%lo(ANSELG)($3)
	ins	$2,$0,6,1
	sh	$2,%lo(ANSELG)($3)
	.loc 1 24 0
	lui	$3,%hi(ANSELB)
	lhu	$2,%lo(ANSELB)($3)
	ins	$2,$0,11,1
	sh	$2,%lo(ANSELB)($3)
	.loc 1 25 0
	lui	$3,%hi(ANSELG)
	lhu	$2,%lo(ANSELG)($3)
	ins	$2,$0,15,1
	sh	$2,%lo(ANSELG)($3)
	.loc 1 27 0
	lui	$3,%hi(TRISG)
	lhu	$2,%lo(TRISG)($3)
	ins	$2,$0,6,1
	sh	$2,%lo(TRISG)($3)
	.loc 1 28 0
	lui	$3,%hi(TRISB)
	lhu	$2,%lo(TRISB)($3)
	ins	$2,$0,11,1
	sh	$2,%lo(TRISB)($3)
	.loc 1 29 0
	lui	$3,%hi(TRISG)
	lhu	$2,%lo(TRISG)($3)
	ins	$2,$0,15,1
	sh	$2,%lo(TRISG)($3)
	.loc 1 30 0
	lui	$3,%hi(TRISD)
	lhu	$2,%lo(TRISD)($3)
	ins	$2,$0,4,1
	sh	$2,%lo(TRISD)($3)
	.loc 1 33 0
	lui	$3,%hi(LATG)
	lhu	$2,%lo(LATG)($3)
	ins	$2,$0,6,1
	sh	$2,%lo(LATG)($3)
	.loc 1 34 0
	lui	$3,%hi(LATD)
	lhu	$2,%lo(LATD)($3)
	ins	$2,$0,4,1
	sh	$2,%lo(LATD)($3)
	.loc 1 35 0
	lui	$3,%hi(LATB)
	lhu	$2,%lo(LATB)($3)
	ins	$2,$0,11,1
	sh	$2,%lo(LATB)($3)
	.loc 1 36 0
	lui	$3,%hi(LATG)
	lhu	$2,%lo(LATG)($3)
	ins	$2,$0,15,1
	sh	$2,%lo(LATG)($3)
	.loc 1 40 0
	lui	$3,%hi(ANSELA)
	lhu	$2,%lo(ANSELA)($3)
	ins	$2,$0,5,1
	sh	$2,%lo(ANSELA)($3)
	.loc 1 42 0
	lui	$3,%hi(TRISA)
	lhu	$2,%lo(TRISA)($3)
	li	$4,1			# 0x1
	ins	$2,$4,5,1
	sh	$2,%lo(TRISA)($3)
	.loc 1 43 0
	lui	$3,%hi(TRISA)
	lhu	$2,%lo(TRISA)($3)
	li	$4,1			# 0x1
	ins	$2,$4,4,1
	sh	$2,%lo(TRISA)($3)
	.loc 1 45 0
	lui	$2,%hi(TRISDCLR)
	li	$3,2048			# 0x800
	sw	$3,%lo(TRISDCLR)($2)
	.loc 1 46 0
	move	$sp,$fp
.LCFI2 = .
	.cfi_def_cfa_register 29
	lw	$fp,4($sp)
	addiu	$sp,$sp,8
	j	$31
	nop

	.set	macro
	.set	reorder
# Begin mchp_output_function_epilogue
# End mchp_output_function_epilogue
	.end	InitGPIO
	.cfi_endproc
.LFE2:
	.size	InitGPIO, .-InitGPIO
	.align	2
	.globl	InitApp
.LFB3 = .
	.loc 1 48 0
	.cfi_startproc
	.set	nomips16
	.set	nomicromips
	.ent	InitApp
	.type	InitApp, @function
InitApp:
	.frame	$fp,24,$31		# vars= 0, regs= 2/0, args= 16, gp= 0
	.mask	0xc0000000,-4
	.fmask	0x00000000,0
	.set	noreorder
	.set	nomacro
# End mchp_output_function_prologue
	addiu	$sp,$sp,-24
.LCFI3 = .
	.cfi_def_cfa_offset 24
	sw	$31,20($sp)
	sw	$fp,16($sp)
	.cfi_offset 31, -4
	.cfi_offset 30, -8
	move	$fp,$sp
.LCFI4 = .
	.cfi_def_cfa_register 30
	.loc 1 50 0
	jal	InitGPIO
	nop

	.loc 1 51 0
	jal	UART4_init
	nop

	.loc 1 52 0
	move	$sp,$fp
.LCFI5 = .
	.cfi_def_cfa_register 29
	lw	$31,20($sp)
	lw	$fp,16($sp)
	addiu	$sp,$sp,24
	j	$31
	nop

	.set	macro
	.set	reorder
# Begin mchp_output_function_epilogue
# End mchp_output_function_epilogue
	.end	InitApp
	.cfi_endproc
.LFE3:
	.size	InitApp, .-InitApp
.Letext0:
	.file 2 "c:/program files (x86)/microchip/xc32/v1.42/pic32mx/include/proc/p32mz2048efg100.h"