	.section .mdebug.abi32
	.previous
	.gnu_attribute 4, 3
	.section	.text,code
.Ltext0:
	.cfi_sections	.debug_frame
	.align	2
	.globl	InitApp
.LFB2 = .
	.file 1 "e:/\264\375\260\354\312\302\317\356/\315\352\263\311\312\257\300\317\312\246\264\363\321\247\274\306\273\256\310\316\316\361/cml/the-connected-mcu-lab--v1.5-12oct2016-chn/release/code/mplabxprojects/lab3_port_io.x/user.c"
	.loc 1 18 0
	.cfi_startproc
	.set	nomips16
	.set	nomicromips
	.ent	InitApp
	.type	InitApp, @function
InitApp:
	.frame	$fp,8,$31		# vars= 0, regs= 1/0, args= 0, gp= 0
	.mask	0x40000000,-4
	.fmask	0x00000000,0
	.set	noreorder
	.set	nomacro
# End mchp_output_function_prologue
	addiu	$sp,$sp,-8
.LCFI0 = .
	.cfi_def_cfa_offset 8
	sw	$fp,4($sp)
	.cfi_offset 30, -4
	move	$fp,$sp
.LCFI1 = .
	.cfi_def_cfa_register 30
	.loc 1 23 0
	lui	$3,%hi(ANSELG)
	lhu	$2,%lo(ANSELG)($3)
	ins	$2,$0,6,1
	sh	$2,%lo(ANSELG)($3)
	.loc 1 25 0
	lui	$3,%hi(TRISG)
	lhu	$2,%lo(TRISG)($3)
	ins	$2,$0,6,1
	sh	$2,%lo(TRISG)($3)
	.loc 1 35 0
	lui	$3,%hi(ANSELA)
	lhu	$2,%lo(ANSELA)($3)
	ins	$2,$0,5,1
	sh	$2,%lo(ANSELA)($3)
	.loc 1 37 0
	lui	$3,%hi(TRISA)
	lhu	$2,%lo(TRISA)($3)
	li	$4,1			# 0x1
	ins	$2,$4,5,1
	sh	$2,%lo(TRISA)($3)
	.loc 1 42 0
	move	$sp,$fp
.LCFI2 = .
	.cfi_def_cfa_register 29
	lw	$fp,4($sp)
	addiu	$sp,$sp,8
	j	$31
	nop

	.set	macro
	.set	reorder
# Begin mchp_output_function_epilogue
# End mchp_output_function_epilogue
	.end	InitApp
	.cfi_endproc
.LFE2:
	.size	InitApp, .-InitApp
	.align	2
	.globl	Delay
.LFB3 = .
	.loc 1 44 0
	.cfi_startproc
	.set	nomips16
	.set	nomicromips
	.ent	Delay
	.type	Delay, @function
Delay:
	.frame	$fp,16,$31		# vars= 8, regs= 1/0, args= 0, gp= 0
	.mask	0x40000000,-4
	.fmask	0x00000000,0
	.set	noreorder
	.set	nomacro
# End mchp_output_function_prologue
	addiu	$sp,$sp,-16
.LCFI3 = .
	.cfi_def_cfa_offset 16
	sw	$fp,12($sp)
	.cfi_offset 30, -4
	move	$fp,$sp
.LCFI4 = .
	.cfi_def_cfa_register 30
	sw	$4,16($fp)
	.loc 1 46 0
	sw	$0,0($fp)
	j	.L3
	nop

.L4:
	lw	$2,0($fp)
	addiu	$2,$2,1
	sw	$2,0($fp)
.L3:
	lw	$3,0($fp)
	lw	$2,16($fp)
	slt	$2,$3,$2
	bne	$2,$0,.L4
	nop

	.loc 1 48 0
	move	$sp,$fp
.LCFI5 = .
	.cfi_def_cfa_register 29
	lw	$fp,12($sp)
	addiu	$sp,$sp,16
	j	$31
	nop

	.set	macro
	.set	reorder
# Begin mchp_output_function_epilogue
# End mchp_output_function_epilogue
	.end	Delay
	.cfi_endproc
.LFE3:
	.size	Delay, .-Delay
	.align	2
	.globl	Flash_LED
.LFB4 = .
	.loc 1 50 0
	.cfi_startproc
	.set	nomips16
	.set	nomicromips
	.ent	Flash_LED
	.type	Flash_LED, @function
Flash_LED:
	.frame	$fp,32,$31		# vars= 8, regs= 2/0, args= 16, gp= 0
	.mask	0xc0000000,-4
	.fmask	0x00000000,0
	.set	noreorder
	.set	nomacro
# End mchp_output_function_prologue
	addiu	$sp,$sp,-32
.LCFI6 = .
	.cfi_def_cfa_offset 32
	sw	$31,28($sp)
	sw	$fp,24($sp)
	.cfi_offset 31, -4
	.cfi_offset 30, -8
	move	$fp,$sp
.LCFI7 = .
	.cfi_def_cfa_register 30
.L8:
	.loc 1 53 0
	lui	$2,%hi(PORTA)
	lw	$2,%lo(PORTA)($2)
	andi	$2,$2,0x20
	beq	$2,$0,.L6
	nop

	.loc 1 55 0
	li	$2,983040			# 0xf0000
	ori	$2,$2,0x4240
	sw	$2,16($fp)
	j	.L7
	nop

.L6:
	.loc 1 58 0
	li	$2,3997696			# 0x3d0000
	ori	$2,$2,0x900
	sw	$2,16($fp)
.L7:
	.loc 1 60 0
	lui	$3,%hi(PORTG)
	lhu	$2,%lo(PORTG)($3)
	li	$4,1			# 0x1
	ins	$2,$4,6,1
	sh	$2,%lo(PORTG)($3)
	.loc 1 61 0
	lw	$4,16($fp)
	jal	Delay
	nop

	.loc 1 62 0
	lui	$3,%hi(PORTG)
	lhu	$2,%lo(PORTG)($3)
	ins	$2,$0,6,1
	sh	$2,%lo(PORTG)($3)
	.loc 1 63 0
	lw	$4,16($fp)
	jal	Delay
	nop

	.loc 1 64 0
	j	.L8
	nop

	.set	macro
	.set	reorder
# Begin mchp_output_function_epilogue
# End mchp_output_function_epilogue
	.end	Flash_LED
	.cfi_endproc
.LFE4:
	.size	Flash_LED, .-Flash_LED
.Letext0:
	.file 2 "c:/program files (x86)/microchip/xc32/v1.42/pic32mx/include/proc/p32mz2048ecg100.h"