	.section .mdebug.abi32
	.previous
	.gnu_attribute 4, 4
	.section	.text,code
.Ltext0:
	.cfi_sections	.debug_frame

	.comm	rgbOledBmp,512,4

	.comm	xcoOledCur,4,4

	.comm	ycoOledCur,4,4

	.comm	pbOledCur,4,4

	.comm	bnOledCur,4,4

	.comm	clrOledCur,1,1

	.comm	pbOledPatCur,4,4

	.comm	fOledCharUpdate,4,4

	.comm	dxcoOledFontCur,4,4

	.comm	dycoOledFontCur,4,4

	.comm	pbOledFontCur,4,4

	.comm	pbOledFontUser,4,4
	.align	2
	.globl	OledHostInit
.LFB2 = .
	.file 1 "e:/\264\375\260\354\312\302\317\356/\315\352\263\311\312\257\300\317\312\246\264\363\321\247\274\306\273\256\310\316\316\361/cml/the-connected-mcu-lab--v1.5-12oct2016-chn/release/modules/7_communication/demo7_comm_uart_int/src/oled/oled.c"
	.loc 1 130 0
	.cfi_startproc
	.set	nomips16
	.set	nomicromips
	.ent	OledHostInit
	.type	OledHostInit, @function
OledHostInit:
	.frame	$fp,8,$31		# vars= 0, regs= 1/0, args= 0, gp= 0
	.mask	0x40000000,-4
	.fmask	0x00000000,0
	.set	noreorder
	.set	nomacro
# End mchp_output_function_prologue
	addiu	$sp,$sp,-8
.LCFI0 = .
	.cfi_def_cfa_offset 8
	sw	$fp,4($sp)
	.cfi_offset 30, -4
	move	$fp,$sp
.LCFI1 = .
	.cfi_def_cfa_register 30
	.loc 1 134 0
	lui	$2,%hi(SPI2CON)
	sw	$0,%lo(SPI2CON)($2)
	.loc 1 135 0
	lui	$2,%hi(SPI2BRG)
	li	$3,9			# 0x9
	sw	$3,%lo(SPI2BRG)($2)
	.loc 1 136 0
	lui	$3,%hi(SPI2STAT)
	lw	$2,%lo(SPI2STAT)($3)
	ins	$2,$0,6,1
	sw	$2,%lo(SPI2STAT)($3)
	.loc 1 137 0
	lui	$3,%hi(SPI2CON)
	lw	$2,%lo(SPI2CON)($3)
	li	$4,1			# 0x1
	ins	$2,$4,6,1
	sw	$2,%lo(SPI2CON)($3)
	.loc 1 138 0
	lui	$3,%hi(SPI2CON)
	lw	$2,%lo(SPI2CON)($3)
	li	$4,1			# 0x1
	ins	$2,$4,5,1
	sw	$2,%lo(SPI2CON)($3)
	.loc 1 139 0
	lui	$3,%hi(SPI2CON)
	lw	$2,%lo(SPI2CON)($3)
	li	$4,1			# 0x1
	ins	$2,$4,15,1
	sw	$2,%lo(SPI2CON)($3)
	.loc 1 142 0
	lui	$2,%hi(LATDSET)
	li	$3,36864			# 0x9000
	sw	$3,%lo(LATDSET)($2)
	.loc 1 143 0
	lui	$2,%hi(LATDSET)
	li	$3,16384			# 0x4000
	sw	$3,%lo(LATDSET)($2)
	.loc 1 146 0
	lui	$2,%hi(TRISDCLR)
	li	$3,36864			# 0x9000
	sw	$3,%lo(TRISDCLR)($2)
	.loc 1 147 0
	lui	$2,%hi(TRISDCLR)
	li	$3,16384			# 0x4000
	sw	$3,%lo(TRISDCLR)($2)
	.loc 1 150 0
	lui	$2,%hi(TRISDCLR)
	li	$3,2048			# 0x800
	sw	$3,%lo(TRISDCLR)($2)
	.loc 1 155 0
	lui	$2,%hi(LATGSET)
	li	$3,512			# 0x200
	sw	$3,%lo(LATGSET)($2)
	.loc 1 158 0
	lui	$2,%hi(TRISGCLR)
	li	$3,512			# 0x200
	sw	$3,%lo(TRISGCLR)($2)
	.loc 1 159 0
	lui	$2,%hi(ANSELGCLR)
	li	$3,512			# 0x200
	sw	$3,%lo(ANSELGCLR)($2)
	.loc 1 162 0
	lui	$2,%hi(RPD11R)
	li	$3,6			# 0x6
	sw	$3,%lo(RPD11R)($2)
	.loc 1 163 0
	move	$sp,$fp
.LCFI2 = .
	.cfi_def_cfa_register 29
	lw	$fp,4($sp)
	addiu	$sp,$sp,8
	j	$31
	nop

	.set	macro
	.set	reorder
# Begin mchp_output_function_epilogue
# End mchp_output_function_epilogue
	.end	OledHostInit
	.cfi_endproc
.LFE2:
	.size	OledHostInit, .-OledHostInit
	.align	2
	.globl	OledDspInit
.LFB3 = .
	.loc 1 182 0
	.cfi_startproc
	.set	nomips16
	.set	nomicromips
	.ent	OledDspInit
	.type	OledDspInit, @function
OledDspInit:
	.frame	$fp,24,$31		# vars= 0, regs= 2/0, args= 16, gp= 0
	.mask	0xc0000000,-4
	.fmask	0x00000000,0
	.set	noreorder
	.set	nomacro
# End mchp_output_function_prologue
	addiu	$sp,$sp,-24
.LCFI3 = .
	.cfi_def_cfa_offset 24
	sw	$31,20($sp)
	sw	$fp,16($sp)
	.cfi_offset 31, -4
	.cfi_offset 30, -8
	move	$fp,$sp
.LCFI4 = .
	.cfi_def_cfa_register 30
	.loc 1 185 0
	lui	$2,%hi(LATDCLR)
	li	$3,16384			# 0x4000
	sw	$3,%lo(LATDCLR)($2)
	.loc 1 188 0
	lui	$2,%hi(LATDCLR)
	li	$3,4096			# 0x1000
	sw	$3,%lo(LATDCLR)($2)
	.loc 1 189 0
	li	$4,1			# 0x1
	jal	DelayMs
	nop

	.loc 1 192 0
	li	$4,174			# 0xae
	jal	Spi2PutByte
	nop

	.loc 1 195 0
	lui	$2,%hi(PORTGCLR)
	li	$3,512			# 0x200
	sw	$3,%lo(PORTGCLR)($2)
	.loc 1 196 0
	li	$4,1			# 0x1
	jal	DelayMs
	nop

	.loc 1 197 0
	lui	$2,%hi(PORTGSET)
	li	$3,512			# 0x200
	sw	$3,%lo(PORTGSET)($2)
	.loc 1 200 0
	li	$4,141			# 0x8d
	jal	Spi2PutByte
	nop

	.loc 1 201 0
	li	$4,20			# 0x14
	jal	Spi2PutByte
	nop

	.loc 1 202 0
	li	$4,217			# 0xd9
	jal	Spi2PutByte
	nop

	.loc 1 203 0
	li	$4,241			# 0xf1
	jal	Spi2PutByte
	nop

	.loc 1 206 0
	lui	$2,%hi(LATDCLR)
	li	$3,32768			# 0x8000
	sw	$3,%lo(LATDCLR)($2)
	.loc 1 207 0
	li	$4,100			# 0x64
	jal	DelayMs
	nop

	.loc 1 212 0
	li	$4,161			# 0xa1
	jal	Spi2PutByte
	nop

	.loc 1 213 0
	li	$4,200			# 0xc8
	jal	Spi2PutByte
	nop

	.loc 1 217 0
	li	$4,218			# 0xda
	jal	Spi2PutByte
	nop

	.loc 1 218 0
	li	$4,32			# 0x20
	jal	Spi2PutByte
	nop

	.loc 1 221 0
	li	$4,175			# 0xaf
	jal	Spi2PutByte
	nop

	.loc 1 222 0
	move	$sp,$fp
.LCFI5 = .
	.cfi_def_cfa_register 29
	lw	$31,20($sp)
	lw	$fp,16($sp)
	addiu	$sp,$sp,24
	j	$31
	nop

	.set	macro
	.set	reorder
# Begin mchp_output_function_epilogue
# End mchp_output_function_epilogue
	.end	OledDspInit
	.cfi_endproc
.LFE3:
	.size	OledDspInit, .-OledDspInit
	.align	2
	.globl	OledDvrInit
.LFB4 = .
	.loc 1 243 0
	.cfi_startproc
	.set	nomips16
	.set	nomicromips
	.ent	OledDvrInit
	.type	OledDvrInit, @function
OledDvrInit:
	.frame	$fp,32,$31		# vars= 8, regs= 2/0, args= 16, gp= 0
	.mask	0xc0000000,-4
	.fmask	0x00000000,0
	.set	noreorder
	.set	nomacro
# End mchp_output_function_prologue
	addiu	$sp,$sp,-32
.LCFI6 = .
	.cfi_def_cfa_offset 32
	sw	$31,28($sp)
	sw	$fp,24($sp)
	.cfi_offset 31, -4
	.cfi_offset 30, -8
	move	$fp,$sp
.LCFI7 = .
	.cfi_def_cfa_register 30
	.loc 1 248 0
	li	$2,8			# 0x8
	sw	$2,%gp_rel(dxcoOledFontCur)($28)
	.loc 1 249 0
	li	$2,8			# 0x8
	sw	$2,%gp_rel(dycoOledFontCur)($28)
	.loc 1 250 0
	lui	$2,%hi(rgbOledFont0)
	addiu	$2,$2,%lo(rgbOledFont0)
	sw	$2,%gp_rel(pbOledFontCur)($28)
	.loc 1 251 0
	lui	$2,%hi(rgbOledFontUser)
	addiu	$2,$2,%lo(rgbOledFontUser)
	sw	$2,%gp_rel(pbOledFontUser)($28)
	.loc 1 253 0
	sw	$0,16($fp)
	j	.L4
	nop

.L5:
	.loc 1 254 0
	lui	$2,%hi(rgbOledFontUser)
	addiu	$3,$2,%lo(rgbOledFontUser)
	lw	$2,16($fp)
	addu	$2,$3,$2
	sb	$0,0($2)
	.loc 1 253 0
	lw	$2,16($fp)
	addiu	$2,$2,1
	sw	$2,16($fp)
.L4:
	lw	$2,16($fp)
	slt	$2,$2,256
	bne	$2,$0,.L5
	nop

	.loc 1 257 0
	lw	$2,%gp_rel(dxcoOledFontCur)($28)
	li	$3,128			# 0x80
	div	$0,$3,$2
	teq	$2,$0,7
	mfhi	$2
	mflo	$2
	sw	$2,%gp_rel(xchOledMax)($28)
	.loc 1 258 0
	lw	$2,%gp_rel(dycoOledFontCur)($28)
	li	$3,32			# 0x20
	div	$0,$3,$2
	teq	$2,$0,7
	mfhi	$2
	mflo	$2
	sw	$2,%gp_rel(ychOledMax)($28)
	.loc 1 262 0
	move	$4,$0
	move	$5,$0
	jal	OledSetCursor
	nop

	.loc 1 266 0
	li	$2,1			# 0x1
	sb	$2,%gp_rel(clrOledCur)($28)
	.loc 1 267 0
	lui	$2,%hi(rgbFillPat)
	addiu	$2,$2,%lo(rgbFillPat)
	sw	$2,%gp_rel(pbOledPatCur)($28)
	.loc 1 268 0
	move	$4,$0
	jal	OledSetDrawMode
	nop

	.loc 1 273 0
	li	$2,1			# 0x1
	sw	$2,%gp_rel(fOledCharUpdate)($28)
	.loc 1 275 0
	move	$sp,$fp
.LCFI8 = .
	.cfi_def_cfa_register 29
	lw	$31,28($sp)
	lw	$fp,24($sp)
	addiu	$sp,$sp,32
	j	$31
	nop

	.set	macro
	.set	reorder
# Begin mchp_output_function_epilogue
# End mchp_output_function_epilogue
	.end	OledDvrInit
	.cfi_endproc
.LFE4:
	.size	OledDvrInit, .-OledDvrInit
	.align	2
	.globl	OledUpdate
.LFB5 = .
	.loc 1 294 0
	.cfi_startproc
	.set	nomips16
	.set	nomicromips
	.ent	OledUpdate
	.type	OledUpdate, @function
OledUpdate:
	.frame	$fp,32,$31		# vars= 8, regs= 2/0, args= 16, gp= 0
	.mask	0xc0000000,-4
	.fmask	0x00000000,0
	.set	noreorder
	.set	nomacro
# End mchp_output_function_prologue
	addiu	$sp,$sp,-32
.LCFI9 = .
	.cfi_def_cfa_offset 32
	sw	$31,28($sp)
	sw	$fp,24($sp)
	.cfi_offset 31, -4
	.cfi_offset 30, -8
	move	$fp,$sp
.LCFI10 = .
	.cfi_def_cfa_register 30
	.loc 1 298 0
	lui	$2,%hi(rgbOledBmp)
	addiu	$2,$2,%lo(rgbOledBmp)
	sw	$2,20($fp)
	.loc 1 299 0
	sw	$0,16($fp)
	j	.L7
	nop

.L8:
.LBB2 = .
	.loc 1 300 0
	lui	$2,%hi(LATDCLR)
	li	$3,16384			# 0x4000
	sw	$3,%lo(LATDCLR)($2)
	.loc 1 304 0
	li	$4,34			# 0x22
	jal	Spi2PutByte
	nop

	.loc 1 305 0
	lw	$4,16($fp)
	jal	Spi2PutByte
	nop

	.loc 1 308 0
	move	$4,$0
	jal	Spi2PutByte
	nop

	.loc 1 309 0
	li	$4,16			# 0x10
	jal	Spi2PutByte
	nop

	.loc 1 310 0
	lui	$2,%hi(LATDSET)
	li	$3,16384			# 0x4000
	sw	$3,%lo(LATDSET)($2)
	.loc 1 314 0
	li	$4,128			# 0x80
	lw	$5,20($fp)
	jal	OledPutBuffer
	nop

	.loc 1 315 0
	lw	$2,20($fp)
	addiu	$2,$2,128
	sw	$2,20($fp)
.LBE2 = .
	.loc 1 299 0
	lw	$2,16($fp)
	addiu	$2,$2,1
	sw	$2,16($fp)
.L7:
	lw	$2,16($fp)
	slt	$2,$2,4
	bne	$2,$0,.L8
	nop

	.loc 1 317 0
	move	$sp,$fp
.LCFI11 = .
	.cfi_def_cfa_register 29
	lw	$31,28($sp)
	lw	$fp,24($sp)
	addiu	$sp,$sp,32
	j	$31
	nop

	.set	macro
	.set	reorder
# Begin mchp_output_function_epilogue
# End mchp_output_function_epilogue
	.end	OledUpdate
	.cfi_endproc
.LFE5:
	.size	OledUpdate, .-OledUpdate
	.align	2
	.globl	OledHostTerm
.LFB6 = .
	.loc 1 337 0
	.cfi_startproc
	.set	nomips16
	.set	nomicromips
	.ent	OledHostTerm
	.type	OledHostTerm, @function
OledHostTerm:
	.frame	$fp,8,$31		# vars= 0, regs= 1/0, args= 0, gp= 0
	.mask	0x40000000,-4
	.fmask	0x00000000,0
	.set	noreorder
	.set	nomacro
# End mchp_output_function_prologue
	addiu	$sp,$sp,-8
.LCFI12 = .
	.cfi_def_cfa_offset 8
	sw	$fp,4($sp)
	.cfi_offset 30, -4
	move	$fp,$sp
.LCFI13 = .
	.cfi_def_cfa_register 30
	.loc 1 364 0
	move	$sp,$fp
.LCFI14 = .
	.cfi_def_cfa_register 29
	lw	$fp,4($sp)
	addiu	$sp,$sp,8
	j	$31
	nop

	.set	macro
	.set	reorder
# Begin mchp_output_function_epilogue
# End mchp_output_function_epilogue
	.end	OledHostTerm
	.cfi_endproc
.LFE6:
	.size	OledHostTerm, .-OledHostTerm
	.align	2
	.globl	OledDevTerm
.LFB7 = .
	.loc 1 384 0
	.cfi_startproc
	.set	nomips16
	.set	nomicromips
	.ent	OledDevTerm
	.type	OledDevTerm, @function
OledDevTerm:
	.frame	$fp,24,$31		# vars= 0, regs= 2/0, args= 16, gp= 0
	.mask	0xc0000000,-4
	.fmask	0x00000000,0
	.set	noreorder
	.set	nomacro
# End mchp_output_function_prologue
	addiu	$sp,$sp,-24
.LCFI15 = .
	.cfi_def_cfa_offset 24
	sw	$31,20($sp)
	sw	$fp,16($sp)
	.cfi_offset 31, -4
	.cfi_offset 30, -8
	move	$fp,$sp
.LCFI16 = .
	.cfi_def_cfa_register 30
	.loc 1 388 0
	li	$4,174			# 0xae
	jal	Spi2PutByte
	nop

	.loc 1 399 0
	move	$sp,$fp
.LCFI17 = .
	.cfi_def_cfa_register 29
	lw	$31,20($sp)
	lw	$fp,16($sp)
	addiu	$sp,$sp,24
	j	$31
	nop

	.set	macro
	.set	reorder
# Begin mchp_output_function_epilogue
# End mchp_output_function_epilogue
	.end	OledDevTerm
	.cfi_endproc
.LFE7:
	.size	OledDevTerm, .-OledDevTerm
.Letext0:
	.file 2 "c:/program files/microchip/xc32/v1.42/pic32mx/include/proc/p32mz2048efg100.h"
	.file 3 "c:/program files/microchip/xc32/v1.42/pic32mx/include/machine/int_types.h"
	.file 4 "e:/\264\375\260\354\312\302\317\356/\315\352\263\311\312\257\300\317\312\246\264\363\321\247\274\306\273\256\310\316\316\361/cml/the-connected-mcu-lab--v1.5-12oct2016-chn/release/modules/7_communication/demo7_comm_uart_int/src/oled/oled.h"