	.section .mdebug.abi32
	.previous
	.gnu_attribute 4, 4
	.section	.text,code
.Ltext0:
	.cfi_sections	.debug_frame

	.comm	txq,140,4

	.comm	rxq,140,4
	.align	2
	.globl	UART4_init
.LFB2 = .
	.file 1 "e:/\264\375\260\354\312\302\317\356/\315\352\263\311\312\257\300\317\312\246\264\363\321\247\274\306\273\256\310\316\316\361/cml/the-connected-mcu-lab--v1.5-12oct2016-chn/release/modules/7_communication/demo7_comm_uart_int/src/uart.c"
	.loc 1 59 0
	.cfi_startproc
	.set	nomips16
	.set	nomicromips
	.ent	UART4_init
	.type	UART4_init, @function
UART4_init:
	.frame	$fp,24,$31		# vars= 0, regs= 2/0, args= 16, gp= 0
	.mask	0xc0000000,-4
	.fmask	0x00000000,0
	.set	noreorder
	.set	nomacro
# End mchp_output_function_prologue
	addiu	$sp,$sp,-24
.LCFI0 = .
	.cfi_def_cfa_offset 24
	sw	$31,20($sp)
	sw	$fp,16($sp)
	.cfi_offset 31, -4
	.cfi_offset 30, -8
	move	$fp,$sp
.LCFI1 = .
	.cfi_def_cfa_register 30
	.loc 1 60 0
	lui	$2,%hi(txq)
	addiu	$4,$2,%lo(txq)
	jal	Q_Init
	nop

	.loc 1 61 0
	lui	$2,%hi(rxq)
	addiu	$4,$2,%lo(rxq)
	jal	Q_Init
	nop

	.loc 1 63 0
	lui	$3,%hi(U4MODE)
	lhu	$2,%lo(U4MODE)($3)
	ins	$2,$0,15,1
	sh	$2,%lo(U4MODE)($3)
	.loc 1 64 0
	lui	$2,%hi(RPF8R)
	li	$3,2			# 0x2
	sw	$3,%lo(RPF8R)($2)
	.loc 1 65 0
	lui	$2,%hi(U4RXR)
	li	$3,11			# 0xb
	sw	$3,%lo(U4RXR)($2)
	.loc 1 67 0
	lui	$3,%hi(U4STA)
	lw	$2,%lo(U4STA)($3)
	li	$4,1			# 0x1
	ins	$2,$4,12,1
	sw	$2,%lo(U4STA)($3)
	.loc 1 68 0
	lui	$3,%hi(U4STA)
	lhu	$2,%lo(U4STA)($3)
	li	$4,1			# 0x1
	ins	$2,$4,14,2
	sh	$2,%lo(U4STA)($3)
	.loc 1 72 0
	lui	$2,%hi(U4BRG)
	li	$3,53			# 0x35
	sw	$3,%lo(U4BRG)($2)
	.loc 1 76 0
	lui	$3,%hi(IFS5)
	lw	$2,%lo(IFS5)($3)
	ins	$2,$0,11,1
	sw	$2,%lo(IFS5)($3)
	.loc 1 77 0
	lui	$3,%hi(IFS5)
	lw	$2,%lo(IFS5)($3)
	ins	$2,$0,12,1
	sw	$2,%lo(IFS5)($3)
	.loc 1 78 0
	lui	$3,%hi(IPC42)
	lw	$2,%lo(IPC42)($3)
	li	$4,3			# 0x3
	ins	$2,$4,26,3
	sw	$2,%lo(IPC42)($3)
	.loc 1 79 0
	lui	$3,%hi(IPC42)
	lw	$2,%lo(IPC42)($3)
	li	$4,3			# 0x3
	ins	$2,$4,24,2
	sw	$2,%lo(IPC42)($3)
	.loc 1 80 0
	lui	$3,%hi(IPC43)
	lw	$2,%lo(IPC43)($3)
	li	$4,3			# 0x3
	ins	$2,$4,2,3
	sw	$2,%lo(IPC43)($3)
	.loc 1 81 0
	lui	$3,%hi(IPC43)
	lw	$2,%lo(IPC43)($3)
	li	$4,3			# 0x3
	ins	$2,$4,0,2
	sw	$2,%lo(IPC43)($3)
	.loc 1 82 0
	lui	$3,%hi(IEC5)
	lw	$2,%lo(IEC5)($3)
	li	$4,1			# 0x1
	ins	$2,$4,11,1
	sw	$2,%lo(IEC5)($3)
	.loc 1 83 0
	lui	$3,%hi(IEC5)
	lw	$2,%lo(IEC5)($3)
	li	$4,1			# 0x1
	ins	$2,$4,12,1
	sw	$2,%lo(IEC5)($3)
	.loc 1 84 0
	move	$sp,$fp
.LCFI2 = .
	.cfi_def_cfa_register 29
	lw	$31,20($sp)
	lw	$fp,16($sp)
	addiu	$sp,$sp,24
	j	$31
	nop

	.set	macro
	.set	reorder
# Begin mchp_output_function_epilogue
# End mchp_output_function_epilogue
	.end	UART4_init
	.cfi_endproc
.LFE2:
	.size	UART4_init, .-UART4_init
	.align	2
	.globl	ISR_UART4_RX
.LFB3 = .
	.loc 1 86 0
	.cfi_startproc
	.set	nomips16
	.set	nomicromips
	.ent	ISR_UART4_RX
	.type	ISR_UART4_RX, @function
ISR_UART4_RX:
	.frame	$fp,320,$31		# vars= 8, regs= 19/20, args= 16, gp= 0
	.mask	0xc300fffe,-220
	.fmask	0x000fffff,-64
	.set	noreorder
	.set	nomacro
# Begin mchp_output_function_prologue: SOFTWARE_CONTEXT_SAVE
	.set	noat
# End mchp_output_function_prologue
	rdpgpr	$sp,$sp
	mfc0	$26,$14
	mfc0	$27,$12
	addiu	$sp,$sp,-320
.LCFI3 = .
	.cfi_def_cfa_offset 320
	sw	$26,316($sp)
	mfc0	$26,$12,2
	sw	$27,312($sp)
	sw	$26,308($sp)
	ins	$27,$0,1,15
	ori	$27,$27,0xc00
	mtc0	$27,$12
	sw	$31,100($sp)
	sw	$fp,96($sp)
	sw	$25,92($sp)
	sw	$24,88($sp)
	sw	$15,84($sp)
	sw	$14,80($sp)
	sw	$13,76($sp)
	sw	$12,72($sp)
	sw	$11,68($sp)
	sw	$10,64($sp)
	sw	$9,60($sp)
	sw	$8,56($sp)
	sw	$7,52($sp)
	sw	$6,48($sp)
	sw	$5,44($sp)
	sw	$4,40($sp)
	sw	$3,36($sp)
	sw	$2,32($sp)
	sw	$1,28($sp)
	sdc1	$f19,256($sp)
	sdc1	$f18,248($sp)
	sdc1	$f17,240($sp)
	sdc1	$f16,232($sp)
	sdc1	$f15,224($sp)
	sdc1	$f14,216($sp)
	sdc1	$f13,208($sp)
	sdc1	$f12,200($sp)
	sdc1	$f11,192($sp)
	sdc1	$f10,184($sp)
	sdc1	$f9,176($sp)
	sdc1	$f8,168($sp)
	sdc1	$f7,160($sp)
	sdc1	$f6,152($sp)
	sdc1	$f5,144($sp)
	sdc1	$f4,136($sp)
	sdc1	$f3,128($sp)
	sdc1	$f2,120($sp)
	sdc1	$f1,112($sp)
	sdc1	$f0,104($sp)
	.cfi_offset 26, -12
	.cfi_offset 31, -220
	.cfi_offset 30, -224
	.cfi_offset 25, -228
	.cfi_offset 24, -232
	.cfi_offset 15, -236
	.cfi_offset 14, -240
	.cfi_offset 13, -244
	.cfi_offset 12, -248
	.cfi_offset 11, -252
	.cfi_offset 10, -256
	.cfi_offset 9, -260
	.cfi_offset 8, -264
	.cfi_offset 7, -268
	.cfi_offset 6, -272
	.cfi_offset 5, -276
	.cfi_offset 4, -280
	.cfi_offset 3, -284
	.cfi_offset 2, -288
	.cfi_offset 1, -292
	.cfi_offset 51, -64
	.cfi_offset 50, -72
	.cfi_offset 49, -80
	.cfi_offset 48, -88
	.cfi_offset 47, -96
	.cfi_offset 46, -104
	.cfi_offset 45, -112
	.cfi_offset 44, -120
	.cfi_offset 43, -128
	.cfi_offset 42, -136
	.cfi_offset 41, -144
	.cfi_offset 40, -152
	.cfi_offset 39, -160
	.cfi_offset 38, -168
	.cfi_offset 37, -176
	.cfi_offset 36, -184
	.cfi_offset 35, -192
	.cfi_offset 34, -200
	.cfi_offset 33, -208
	.cfi_offset 32, -216
	mflo	$2
	sw	$2,300($sp)
	mfhi	$3
	sw	$3,296($sp)
	mflo	$2,$ac1
	sw	$2,292($sp)
	mfhi	$3,$ac1
	sw	$3,288($sp)
	mflo	$2,$ac2
	sw	$2,284($sp)
	mfhi	$3,$ac2
	sw	$3,280($sp)
	mflo	$2,$ac3
	sw	$2,276($sp)
	mfhi	$3,$ac3
	sw	$3,272($sp)
	rddsp	$3,63
	sw	$3,304($sp)
	cfc1	$2,$31
	sw	$2,268($sp)
	move	$fp,$sp
.LCFI4 = .
	.cfi_def_cfa_register 30
	.cfi_offset 65, -20
	.cfi_offset 64, -24
	.cfi_offset 209, -28
	.cfi_offset 208, -32
	.cfi_offset 211, -36
	.cfi_offset 210, -40
	.cfi_offset 213, -44
	.cfi_offset 212, -48
	.cfi_offset 3, -16
	.cfi_offset 2, -52
	.loc 1 89 0
	lui	$2,%hi(U4RXREG)
	lw	$2,%lo(U4RXREG)($2)
	sb	$2,16($fp)
	.loc 1 90 0
	lui	$2,%hi(rxq)
	addiu	$4,$2,%lo(rxq)
	jal	Q_Full
	nop

	bne	$2,$0,.L3
	nop

	.loc 1 91 0
	lbu	$2,16($fp)
	lui	$3,%hi(rxq)
	addiu	$4,$3,%lo(rxq)
	move	$5,$2
	jal	Q_Enqueue
	nop

.L3:
	.loc 1 93 0
	lui	$3,%hi(IFS5)
	lw	$2,%lo(IFS5)($3)
	ins	$2,$0,11,1
	sw	$2,%lo(IFS5)($3)
	.loc 1 94 0
	move	$sp,$fp
.LCFI5 = .
	.cfi_def_cfa_register 29
	lw	$2,268($sp)
	ctc1	$2,$31
	lw	$3,304($sp)
	wrdsp	$3,63
	lw	$2,300($sp)
	mtlo	$2
	lw	$3,296($sp)
	mthi	$3
	lw	$5,292($sp)
	mtlo	$5,$ac1
	lw	$5,288($sp)
	mthi	$5,$ac1
	lw	$5,284($sp)
	mtlo	$5,$ac2
	lw	$5,280($sp)
	mthi	$5,$ac2
	lw	$5,276($sp)
	mtlo	$5,$ac3
	lw	$5,272($sp)
	mthi	$5,$ac3
	lw	$31,100($sp)
	lw	$fp,96($sp)
	lw	$25,92($sp)
	lw	$24,88($sp)
	lw	$15,84($sp)
	lw	$14,80($sp)
	lw	$13,76($sp)
	lw	$12,72($sp)
	lw	$11,68($sp)
	lw	$10,64($sp)
	lw	$9,60($sp)
	lw	$8,56($sp)
	lw	$7,52($sp)
	lw	$6,48($sp)
	lw	$5,44($sp)
	lw	$4,40($sp)
	lw	$3,36($sp)
	lw	$2,32($sp)
	lw	$1,28($sp)
	ldc1	$f19,256($sp)
	ldc1	$f18,248($sp)
	ldc1	$f17,240($sp)
	ldc1	$f16,232($sp)
	ldc1	$f15,224($sp)
	ldc1	$f14,216($sp)
	ldc1	$f13,208($sp)
	ldc1	$f12,200($sp)
	ldc1	$f11,192($sp)
	ldc1	$f10,184($sp)
	ldc1	$f9,176($sp)
	ldc1	$f8,168($sp)
	ldc1	$f7,160($sp)
	ldc1	$f6,152($sp)
	ldc1	$f5,144($sp)
	ldc1	$f4,136($sp)
	ldc1	$f3,128($sp)
	ldc1	$f2,120($sp)
	ldc1	$f1,112($sp)
	ldc1	$f0,104($sp)
	di
	ehb
	lw	$26,316($sp)
	lw	$27,312($sp)
	mtc0	$26,$14
	lw	$26,308($sp)
	addiu	$sp,$sp,320
	mtc0	$26,$12,2
	wrpgpr	$sp,$sp
	mtc0	$27,$12
	eret
	.set	macro
	.set	reorder
# Begin mchp_output_function_epilogue
	.set	at
# End mchp_output_function_epilogue
	.end	ISR_UART4_RX
	.cfi_endproc
.LFE3:
	.size	ISR_UART4_RX, .-ISR_UART4_RX
	.align	2
	.globl	ISR_UART4_TX
.LFB4 = .
	.loc 1 96 0
	.cfi_startproc
	.set	nomips16
	.set	nomicromips
	.ent	ISR_UART4_TX
	.type	ISR_UART4_TX, @function
ISR_UART4_TX:
	.frame	$fp,312,$31		# vars= 0, regs= 19/20, args= 16, gp= 0
	.mask	0xc300fffe,-220
	.fmask	0x000fffff,-64
	.set	noreorder
	.set	nomacro
# Begin mchp_output_function_prologue: SOFTWARE_CONTEXT_SAVE
	.set	noat
# End mchp_output_function_prologue
	rdpgpr	$sp,$sp
	mfc0	$26,$14
	mfc0	$27,$12
	addiu	$sp,$sp,-312
.LCFI6 = .
	.cfi_def_cfa_offset 312
	sw	$26,308($sp)
	mfc0	$26,$12,2
	sw	$27,304($sp)
	sw	$26,300($sp)
	ins	$27,$0,1,15
	ori	$27,$27,0xc00
	mtc0	$27,$12
	sw	$31,92($sp)
	sw	$fp,88($sp)
	sw	$25,84($sp)
	sw	$24,80($sp)
	sw	$15,76($sp)
	sw	$14,72($sp)
	sw	$13,68($sp)
	sw	$12,64($sp)
	sw	$11,60($sp)
	sw	$10,56($sp)
	sw	$9,52($sp)
	sw	$8,48($sp)
	sw	$7,44($sp)
	sw	$6,40($sp)
	sw	$5,36($sp)
	sw	$4,32($sp)
	sw	$3,28($sp)
	sw	$2,24($sp)
	sw	$1,20($sp)
	sdc1	$f19,248($sp)
	sdc1	$f18,240($sp)
	sdc1	$f17,232($sp)
	sdc1	$f16,224($sp)
	sdc1	$f15,216($sp)
	sdc1	$f14,208($sp)
	sdc1	$f13,200($sp)
	sdc1	$f12,192($sp)
	sdc1	$f11,184($sp)
	sdc1	$f10,176($sp)
	sdc1	$f9,168($sp)
	sdc1	$f8,160($sp)
	sdc1	$f7,152($sp)
	sdc1	$f6,144($sp)
	sdc1	$f5,136($sp)
	sdc1	$f4,128($sp)
	sdc1	$f3,120($sp)
	sdc1	$f2,112($sp)
	sdc1	$f1,104($sp)
	sdc1	$f0,96($sp)
	.cfi_offset 26, -12
	.cfi_offset 31, -220
	.cfi_offset 30, -224
	.cfi_offset 25, -228
	.cfi_offset 24, -232
	.cfi_offset 15, -236
	.cfi_offset 14, -240
	.cfi_offset 13, -244
	.cfi_offset 12, -248
	.cfi_offset 11, -252
	.cfi_offset 10, -256
	.cfi_offset 9, -260
	.cfi_offset 8, -264
	.cfi_offset 7, -268
	.cfi_offset 6, -272
	.cfi_offset 5, -276
	.cfi_offset 4, -280
	.cfi_offset 3, -284
	.cfi_offset 2, -288
	.cfi_offset 1, -292
	.cfi_offset 51, -64
	.cfi_offset 50, -72
	.cfi_offset 49, -80
	.cfi_offset 48, -88
	.cfi_offset 47, -96
	.cfi_offset 46, -104
	.cfi_offset 45, -112
	.cfi_offset 44, -120
	.cfi_offset 43, -128
	.cfi_offset 42, -136
	.cfi_offset 41, -144
	.cfi_offset 40, -152
	.cfi_offset 39, -160
	.cfi_offset 38, -168
	.cfi_offset 37, -176
	.cfi_offset 36, -184
	.cfi_offset 35, -192
	.cfi_offset 34, -200
	.cfi_offset 33, -208
	.cfi_offset 32, -216
	mflo	$2
	sw	$2,292($sp)
	mfhi	$3
	sw	$3,288($sp)
	mflo	$2,$ac1
	sw	$2,284($sp)
	mfhi	$3,$ac1
	sw	$3,280($sp)
	mflo	$2,$ac2
	sw	$2,276($sp)
	mfhi	$3,$ac2
	sw	$3,272($sp)
	mflo	$2,$ac3
	sw	$2,268($sp)
	mfhi	$3,$ac3
	sw	$3,264($sp)
	rddsp	$3,63
	sw	$3,296($sp)
	cfc1	$2,$31
	sw	$2,260($sp)
	move	$fp,$sp
.LCFI7 = .
	.cfi_def_cfa_register 30
	.cfi_offset 65, -20
	.cfi_offset 64, -24
	.cfi_offset 209, -28
	.cfi_offset 208, -32
	.cfi_offset 211, -36
	.cfi_offset 210, -40
	.cfi_offset 213, -44
	.cfi_offset 212, -48
	.cfi_offset 3, -16
	.cfi_offset 2, -52
	.loc 1 97 0
	lui	$2,%hi(txq)
	addiu	$4,$2,%lo(txq)
	jal	Q_Empty
	nop

	bne	$2,$0,.L5
	nop

	.loc 1 98 0
	lui	$2,%hi(txq)
	addiu	$4,$2,%lo(txq)
	jal	Q_Dequeue
	nop

	move	$3,$2
	lui	$2,%hi(U4TXREG)
	sw	$3,%lo(U4TXREG)($2)
	j	.L6
	nop

.L5:
	.loc 1 100 0
	lui	$3,%hi(U4STA)
	lw	$2,%lo(U4STA)($3)
	ins	$2,$0,10,1
	sw	$2,%lo(U4STA)($3)
.L6:
	.loc 1 102 0
	lui	$3,%hi(IFS5)
	lw	$2,%lo(IFS5)($3)
	ins	$2,$0,12,1
	sw	$2,%lo(IFS5)($3)
	.loc 1 103 0
	move	$sp,$fp
.LCFI8 = .
	.cfi_def_cfa_register 29
	lw	$2,260($sp)
	ctc1	$2,$31
	lw	$3,296($sp)
	wrdsp	$3,63
	lw	$2,292($sp)
	mtlo	$2
	lw	$3,288($sp)
	mthi	$3
	lw	$5,284($sp)
	mtlo	$5,$ac1
	lw	$5,280($sp)
	mthi	$5,$ac1
	lw	$5,276($sp)
	mtlo	$5,$ac2
	lw	$5,272($sp)
	mthi	$5,$ac2
	lw	$5,268($sp)
	mtlo	$5,$ac3
	lw	$5,264($sp)
	mthi	$5,$ac3
	lw	$31,92($sp)
	lw	$fp,88($sp)
	lw	$25,84($sp)
	lw	$24,80($sp)
	lw	$15,76($sp)
	lw	$14,72($sp)
	lw	$13,68($sp)
	lw	$12,64($sp)
	lw	$11,60($sp)
	lw	$10,56($sp)
	lw	$9,52($sp)
	lw	$8,48($sp)
	lw	$7,44($sp)
	lw	$6,40($sp)
	lw	$5,36($sp)
	lw	$4,32($sp)
	lw	$3,28($sp)
	lw	$2,24($sp)
	lw	$1,20($sp)
	ldc1	$f19,248($sp)
	ldc1	$f18,240($sp)
	ldc1	$f17,232($sp)
	ldc1	$f16,224($sp)
	ldc1	$f15,216($sp)
	ldc1	$f14,208($sp)
	ldc1	$f13,200($sp)
	ldc1	$f12,192($sp)
	ldc1	$f11,184($sp)
	ldc1	$f10,176($sp)
	ldc1	$f9,168($sp)
	ldc1	$f8,160($sp)
	ldc1	$f7,152($sp)
	ldc1	$f6,144($sp)
	ldc1	$f5,136($sp)
	ldc1	$f4,128($sp)
	ldc1	$f3,120($sp)
	ldc1	$f2,112($sp)
	ldc1	$f1,104($sp)
	ldc1	$f0,96($sp)
	di
	ehb
	lw	$26,308($sp)
	lw	$27,304($sp)
	mtc0	$26,$14
	lw	$26,300($sp)
	addiu	$sp,$sp,312
	mtc0	$26,$12,2
	wrpgpr	$sp,$sp
	mtc0	$27,$12
	eret
	.set	macro
	.set	reorder
# Begin mchp_output_function_epilogue
	.set	at
# End mchp_output_function_epilogue
	.end	ISR_UART4_TX
	.cfi_endproc
.LFE4:
	.size	ISR_UART4_TX, .-ISR_UART4_TX
	.align	2
	.globl	UART4_getc
.LFB5 = .
	.loc 1 106 0
	.cfi_startproc
	.set	nomips16
	.set	nomicromips
	.ent	UART4_getc
	.type	UART4_getc, @function
UART4_getc:
	.frame	$fp,8,$31		# vars= 0, regs= 1/0, args= 0, gp= 0
	.mask	0x40000000,-4
	.fmask	0x00000000,0
	.set	noreorder
	.set	nomacro
# End mchp_output_function_prologue
	addiu	$sp,$sp,-8
.LCFI9 = .
	.cfi_def_cfa_offset 8
	sw	$fp,4($sp)
	.cfi_offset 30, -4
	move	$fp,$sp
.LCFI10 = .
	.cfi_def_cfa_register 30
	.loc 1 107 0
	nop
.L8:
	lui	$2,%hi(U4STA)
	lw	$2,%lo(U4STA)($2)
	andi	$2,$2,0x1
	beq	$2,$0,.L8
	nop

	.loc 1 109 0
	lui	$2,%hi(U4RXREG)
	lw	$2,%lo(U4RXREG)($2)
	seb	$2,$2
	.loc 1 110 0
	move	$sp,$fp
.LCFI11 = .
	.cfi_def_cfa_register 29
	lw	$fp,4($sp)
	addiu	$sp,$sp,8
	j	$31
	nop

	.set	macro
	.set	reorder
# Begin mchp_output_function_epilogue
# End mchp_output_function_epilogue
	.end	UART4_getc
	.cfi_endproc
.LFE5:
	.size	UART4_getc, .-UART4_getc
	.align	2
	.globl	UART4_putc
.LFB6 = .
	.loc 1 112 0
	.cfi_startproc
	.set	nomips16
	.set	nomicromips
	.ent	UART4_putc
	.type	UART4_putc, @function
UART4_putc:
	.frame	$fp,8,$31		# vars= 0, regs= 1/0, args= 0, gp= 0
	.mask	0x40000000,-4
	.fmask	0x00000000,0
	.set	noreorder
	.set	nomacro
# End mchp_output_function_prologue
	addiu	$sp,$sp,-8
.LCFI12 = .
	.cfi_def_cfa_offset 8
	sw	$fp,4($sp)
	.cfi_offset 30, -4
	move	$fp,$sp
.LCFI13 = .
	.cfi_def_cfa_register 30
	move	$2,$4
	sb	$2,8($fp)
	.loc 1 113 0
	nop
.L11:
	lui	$2,%hi(U4STA)
	lw	$2,%lo(U4STA)($2)
	andi	$2,$2,0x200
	bne	$2,$0,.L11
	nop

	.loc 1 115 0
	lb	$3,8($fp)
	lui	$2,%hi(U4TXREG)
	sw	$3,%lo(U4TXREG)($2)
	.loc 1 116 0
	move	$sp,$fp
.LCFI14 = .
	.cfi_def_cfa_register 29
	lw	$fp,4($sp)
	addiu	$sp,$sp,8
	j	$31
	nop

	.set	macro
	.set	reorder
# Begin mchp_output_function_epilogue
# End mchp_output_function_epilogue
	.end	UART4_putc
	.cfi_endproc
.LFE6:
	.size	UART4_putc, .-UART4_putc
	.align	2
	.globl	UART4_puts
.LFB7 = .
	.loc 1 118 0
	.cfi_startproc
	.set	nomips16
	.set	nomicromips
	.ent	UART4_puts
	.type	UART4_puts, @function
UART4_puts:
	.frame	$fp,24,$31		# vars= 0, regs= 2/0, args= 16, gp= 0
	.mask	0xc0000000,-4
	.fmask	0x00000000,0
	.set	noreorder
	.set	nomacro
# End mchp_output_function_prologue
	addiu	$sp,$sp,-24
.LCFI15 = .
	.cfi_def_cfa_offset 24
	sw	$31,20($sp)
	sw	$fp,16($sp)
	.cfi_offset 31, -4
	.cfi_offset 30, -8
	move	$fp,$sp
.LCFI16 = .
	.cfi_def_cfa_register 30
	sw	$4,24($fp)
	.loc 1 119 0
	j	.L13
	nop

.L14:
	.loc 1 120 0
	lw	$2,24($fp)
	addiu	$3,$2,1
	sw	$3,24($fp)
	lb	$2,0($2)
	move	$4,$2
	jal	UART4_putc
	nop

.L13:
	.loc 1 119 0
	lw	$2,24($fp)
	lb	$2,0($2)
	bne	$2,$0,.L14
	nop

	.loc 1 121 0
	move	$sp,$fp
.LCFI17 = .
	.cfi_def_cfa_register 29
	lw	$31,20($sp)
	lw	$fp,16($sp)
	addiu	$sp,$sp,24
	j	$31
	nop

	.set	macro
	.set	reorder
# Begin mchp_output_function_epilogue
# End mchp_output_function_epilogue
	.end	UART4_puts
	.cfi_endproc
.LFE7:
	.size	UART4_puts, .-UART4_puts
	.align	2
	.globl	UART4_qgetc
.LFB8 = .
	.loc 1 123 0
	.cfi_startproc
	.set	nomips16
	.set	nomicromips
	.ent	UART4_qgetc
	.type	UART4_qgetc, @function
UART4_qgetc:
	.frame	$fp,24,$31		# vars= 0, regs= 2/0, args= 16, gp= 0
	.mask	0xc0000000,-4
	.fmask	0x00000000,0
	.set	noreorder
	.set	nomacro
# End mchp_output_function_prologue
	addiu	$sp,$sp,-24
.LCFI18 = .
	.cfi_def_cfa_offset 24
	sw	$31,20($sp)
	sw	$fp,16($sp)
	.cfi_offset 31, -4
	.cfi_offset 30, -8
	move	$fp,$sp
.LCFI19 = .
	.cfi_def_cfa_register 30
	.loc 1 124 0
	nop
.L16:
	lui	$2,%hi(rxq)
	addiu	$4,$2,%lo(rxq)
	jal	Q_Empty
	nop

	bne	$2,$0,.L16
	nop

	.loc 1 126 0
	lui	$2,%hi(rxq)
	addiu	$4,$2,%lo(rxq)
	jal	Q_Dequeue
	nop

	.loc 1 127 0
	move	$sp,$fp
.LCFI20 = .
	.cfi_def_cfa_register 29
	lw	$31,20($sp)
	lw	$fp,16($sp)
	addiu	$sp,$sp,24
	j	$31
	nop

	.set	macro
	.set	reorder
# Begin mchp_output_function_epilogue
# End mchp_output_function_epilogue
	.end	UART4_qgetc
	.cfi_endproc
.LFE8:
	.size	UART4_qgetc, .-UART4_qgetc
	.align	2
	.globl	UART4_qputc
.LFB9 = .
	.loc 1 129 0
	.cfi_startproc
	.set	nomips16
	.set	nomicromips
	.ent	UART4_qputc
	.type	UART4_qputc, @function
UART4_qputc:
	.frame	$fp,24,$31		# vars= 0, regs= 2/0, args= 16, gp= 0
	.mask	0xc0000000,-4
	.fmask	0x00000000,0
	.set	noreorder
	.set	nomacro
# End mchp_output_function_prologue
	addiu	$sp,$sp,-24
.LCFI21 = .
	.cfi_def_cfa_offset 24
	sw	$31,20($sp)
	sw	$fp,16($sp)
	.cfi_offset 31, -4
	.cfi_offset 30, -8
	move	$fp,$sp
.LCFI22 = .
	.cfi_def_cfa_register 30
	move	$2,$4
	sb	$2,24($fp)
	.loc 1 131 0
	nop
.L19:
	lui	$2,%hi(txq)
	addiu	$4,$2,%lo(txq)
	jal	Q_Full
	nop

	bne	$2,$0,.L19
	nop

	.loc 1 133 0
	lbu	$2,24($fp)
	lui	$3,%hi(txq)
	addiu	$4,$3,%lo(txq)
	move	$5,$2
	jal	Q_Enqueue
	nop

	.loc 1 135 0
	lui	$3,%hi(U4STA)
	lw	$2,%lo(U4STA)($3)
	li	$4,1			# 0x1
	ins	$2,$4,10,1
	sw	$2,%lo(U4STA)($3)
	.loc 1 136 0
	move	$sp,$fp
.LCFI23 = .
	.cfi_def_cfa_register 29
	lw	$31,20($sp)
	lw	$fp,16($sp)
	addiu	$sp,$sp,24
	j	$31
	nop

	.set	macro
	.set	reorder
# Begin mchp_output_function_epilogue
# End mchp_output_function_epilogue
	.end	UART4_qputc
	.cfi_endproc
.LFE9:
	.size	UART4_qputc, .-UART4_qputc
	.align	2
	.globl	UART4_qputs
.LFB10 = .
	.loc 1 138 0
	.cfi_startproc
	.set	nomips16
	.set	nomicromips
	.ent	UART4_qputs
	.type	UART4_qputs, @function
UART4_qputs:
	.frame	$fp,24,$31		# vars= 0, regs= 2/0, args= 16, gp= 0
	.mask	0xc0000000,-4
	.fmask	0x00000000,0
	.set	noreorder
	.set	nomacro
# End mchp_output_function_prologue
	addiu	$sp,$sp,-24
.LCFI24 = .
	.cfi_def_cfa_offset 24
	sw	$31,20($sp)
	sw	$fp,16($sp)
	.cfi_offset 31, -4
	.cfi_offset 30, -8
	move	$fp,$sp
.LCFI25 = .
	.cfi_def_cfa_register 30
	sw	$4,24($fp)
	.loc 1 140 0
	j	.L21
	nop

.L22:
	.loc 1 141 0
	lw	$2,24($fp)
	addiu	$3,$2,1
	sw	$3,24($fp)
	lb	$2,0($2)
	move	$4,$2
	jal	UART4_qputc
	nop

.L21:
	.loc 1 140 0
	lw	$2,24($fp)
	lb	$2,0($2)
	bne	$2,$0,.L22
	nop

	.loc 1 143 0
	move	$sp,$fp
.LCFI26 = .
	.cfi_def_cfa_register 29
	lw	$31,20($sp)
	lw	$fp,16($sp)
	addiu	$sp,$sp,24
	j	$31
	nop

	.set	macro
	.set	reorder
# Begin mchp_output_function_epilogue
# End mchp_output_function_epilogue
	.end	UART4_qputs
	.cfi_endproc
.LFE10:
	.size	UART4_qputs, .-UART4_qputs
.Letext0:
	.file 2 "c:/program files/microchip/xc32/v1.42/pic32mx/include/proc/p32mz2048efg100.h"
	.file 3 "e:/\264\375\260\354\312\302\317\356/\315\352\263\311\312\257\300\317\312\246\264\363\321\247\274\306\273\256\310\316\316\361/cml/the-connected-mcu-lab--v1.5-12oct2016-chn/release/modules/7_communication/demo7_comm_uart_int/src/queue.h"
	.section	.vector_172,code,keep
	.set	nomips16
	.set noreorder
	.align	2
	.ent	__vector_dispatch_172
__vector_dispatch_172:
	j	ISR_UART4_TX
	nop
	.set reorder
	.end	__vector_dispatch_172
	.size	__vector_dispatch_172, .-__vector_dispatch_172
	.globl	__vector_dispatch_171
	.section	.vector_171,code,keep
	.set	nomips16
	.set noreorder
	.align	2
	.ent	__vector_dispatch_171
__vector_dispatch_171:
	j	ISR_UART4_RX
	nop
	.set reorder
	.end	__vector_dispatch_171
	.size	__vector_dispatch_171, .-__vector_dispatch_171
# End MCHP vector dispatch table
# Microchip Technology PIC32 MCU configuration words
