	.section .mdebug.abi32
	.previous
	.gnu_attribute 4, 3
	.section	.text,code
.Ltext0:
	.cfi_sections	.debug_frame
	.globl	Run_TASK_Scan_LEDs
	.section	.sbss,bss
	.align	2
	.type	Run_TASK_Scan_LEDs, @object
	.size	Run_TASK_Scan_LEDs, 4
Run_TASK_Scan_LEDs:
	.space	4
	.globl	G_Allow_Lit_LEDs
	.section	.sdata,data
	.align	2
	.type	G_Allow_Lit_LEDs, @object
	.size	G_Allow_Lit_LEDs, 4
G_Allow_Lit_LEDs:
	.word	1
	.section	.text,code
	.align	2
	.globl	InitTimer2
.LFB2 = .
	.file 1 "e:/\264\375\260\354\312\302\317\356/\315\352\263\311\312\257\300\317\312\246\264\363\321\247\274\306\273\256\310\316\316\361/cml/the-connected-mcu-lab--v1.5-12oct2016-chn/release/modules/6_timers_and_counters/demo6_basic_concurrency_tasks_timers/user.c"
	.loc 1 26 0
	.cfi_startproc
	.set	nomips16
	.set	nomicromips
	.ent	InitTimer2
	.type	InitTimer2, @function
InitTimer2:
	.frame	$fp,8,$31		# vars= 0, regs= 1/0, args= 0, gp= 0
	.mask	0x40000000,-4
	.fmask	0x00000000,0
	.set	noreorder
	.set	nomacro
# End mchp_output_function_prologue
	addiu	$sp,$sp,-8
.LCFI0 = .
	.cfi_def_cfa_offset 8
	sw	$fp,4($sp)
	.cfi_offset 30, -4
	move	$fp,$sp
.LCFI1 = .
	.cfi_def_cfa_register 30
	.loc 1 27 0
	lui	$2,%hi(T2CON)
	sw	$0,%lo(T2CON)($2)
	.loc 1 28 0
	lui	$3,%hi(T2CON)
	lhu	$2,%lo(T2CON)($3)
	li	$4,7			# 0x7
	ins	$2,$4,4,3
	sh	$2,%lo(T2CON)($3)
	.loc 1 29 0
	lui	$2,%hi(TMR2)
	sw	$0,%lo(TMR2)($2)
	.loc 1 30 0
	lui	$2,%hi(PR2)
	li	$3,48828			# 0xbebc
	sw	$3,%lo(PR2)($2)
	.loc 1 32 0
	lui	$3,%hi(IPC2)
	lw	$2,%lo(IPC2)($3)
	li	$4,3			# 0x3
	ins	$2,$4,10,3
	sw	$2,%lo(IPC2)($3)
	.loc 1 33 0
	lui	$3,%hi(IPC2)
	lw	$2,%lo(IPC2)($3)
	ins	$2,$0,8,2
	sw	$2,%lo(IPC2)($3)
	.loc 1 35 0
	lui	$3,%hi(IFS0)
	lw	$2,%lo(IFS0)($3)
	ins	$2,$0,9,1
	sw	$2,%lo(IFS0)($3)
	.loc 1 36 0
	lui	$3,%hi(IEC0)
	lw	$2,%lo(IEC0)($3)
	li	$4,1			# 0x1
	ins	$2,$4,9,1
	sw	$2,%lo(IEC0)($3)
	.loc 1 37 0
	move	$sp,$fp
.LCFI2 = .
	.cfi_def_cfa_register 29
	lw	$fp,4($sp)
	addiu	$sp,$sp,8
	j	$31
	nop

	.set	macro
	.set	reorder
# Begin mchp_output_function_epilogue
# End mchp_output_function_epilogue
	.end	InitTimer2
	.cfi_endproc
.LFE2:
	.size	InitTimer2, .-InitTimer2
	.align	2
	.globl	InitGPIO
.LFB3 = .
	.loc 1 39 0
	.cfi_startproc
	.set	nomips16
	.set	nomicromips
	.ent	InitGPIO
	.type	InitGPIO, @function
InitGPIO:
	.frame	$fp,8,$31		# vars= 0, regs= 1/0, args= 0, gp= 0
	.mask	0x40000000,-4
	.fmask	0x00000000,0
	.set	noreorder
	.set	nomacro
# End mchp_output_function_prologue
	addiu	$sp,$sp,-8
.LCFI3 = .
	.cfi_def_cfa_offset 8
	sw	$fp,4($sp)
	.cfi_offset 30, -4
	move	$fp,$sp
.LCFI4 = .
	.cfi_def_cfa_register 30
	.loc 1 43 0
	lui	$3,%hi(ANSELG)
	lhu	$2,%lo(ANSELG)($3)
	ins	$2,$0,6,1
	sh	$2,%lo(ANSELG)($3)
	.loc 1 44 0
	lui	$3,%hi(ANSELB)
	lhu	$2,%lo(ANSELB)($3)
	ins	$2,$0,11,1
	sh	$2,%lo(ANSELB)($3)
	.loc 1 45 0
	lui	$3,%hi(ANSELG)
	lhu	$2,%lo(ANSELG)($3)
	ins	$2,$0,15,1
	sh	$2,%lo(ANSELG)($3)
	.loc 1 47 0
	lui	$3,%hi(TRISG)
	lhu	$2,%lo(TRISG)($3)
	ins	$2,$0,6,1
	sh	$2,%lo(TRISG)($3)
	.loc 1 48 0
	lui	$3,%hi(TRISB)
	lhu	$2,%lo(TRISB)($3)
	ins	$2,$0,11,1
	sh	$2,%lo(TRISB)($3)
	.loc 1 49 0
	lui	$3,%hi(TRISG)
	lhu	$2,%lo(TRISG)($3)
	ins	$2,$0,15,1
	sh	$2,%lo(TRISG)($3)
	.loc 1 50 0
	lui	$3,%hi(TRISD)
	lhu	$2,%lo(TRISD)($3)
	ins	$2,$0,4,1
	sh	$2,%lo(TRISD)($3)
	.loc 1 53 0
	lui	$3,%hi(LATG)
	lhu	$2,%lo(LATG)($3)
	ins	$2,$0,6,1
	sh	$2,%lo(LATG)($3)
	.loc 1 54 0
	lui	$3,%hi(LATD)
	lhu	$2,%lo(LATD)($3)
	ins	$2,$0,4,1
	sh	$2,%lo(LATD)($3)
	.loc 1 55 0
	lui	$3,%hi(LATB)
	lhu	$2,%lo(LATB)($3)
	ins	$2,$0,11,1
	sh	$2,%lo(LATB)($3)
	.loc 1 56 0
	lui	$3,%hi(LATG)
	lhu	$2,%lo(LATG)($3)
	ins	$2,$0,15,1
	sh	$2,%lo(LATG)($3)
	.loc 1 60 0
	lui	$3,%hi(ANSELA)
	lhu	$2,%lo(ANSELA)($3)
	ins	$2,$0,5,1
	sh	$2,%lo(ANSELA)($3)
	.loc 1 62 0
	lui	$3,%hi(TRISA)
	lhu	$2,%lo(TRISA)($3)
	li	$4,1			# 0x1
	ins	$2,$4,5,1
	sh	$2,%lo(TRISA)($3)
	.loc 1 63 0
	lui	$3,%hi(TRISA)
	lhu	$2,%lo(TRISA)($3)
	li	$4,1			# 0x1
	ins	$2,$4,4,1
	sh	$2,%lo(TRISA)($3)
	.loc 1 64 0
	move	$sp,$fp
.LCFI5 = .
	.cfi_def_cfa_register 29
	lw	$fp,4($sp)
	addiu	$sp,$sp,8
	j	$31
	nop

	.set	macro
	.set	reorder
# Begin mchp_output_function_epilogue
# End mchp_output_function_epilogue
	.end	InitGPIO
	.cfi_endproc
.LFE3:
	.size	InitGPIO, .-InitGPIO
	.align	2
	.globl	InitApp
.LFB4 = .
	.loc 1 66 0
	.cfi_startproc
	.set	nomips16
	.set	nomicromips
	.ent	InitApp
	.type	InitApp, @function
InitApp:
	.frame	$fp,24,$31		# vars= 0, regs= 2/0, args= 16, gp= 0
	.mask	0xc0000000,-4
	.fmask	0x00000000,0
	.set	noreorder
	.set	nomacro
# End mchp_output_function_prologue
	addiu	$sp,$sp,-24
.LCFI6 = .
	.cfi_def_cfa_offset 24
	sw	$31,20($sp)
	sw	$fp,16($sp)
	.cfi_offset 31, -4
	.cfi_offset 30, -8
	move	$fp,$sp
.LCFI7 = .
	.cfi_def_cfa_register 30
	.loc 1 68 0
	jal	InitGPIO
	nop

	.loc 1 69 0
	jal	InitTimer2
	nop

	.loc 1 72 0
	lui	$2,%hi(INTCONSET)
	li	$3,4096			# 0x1000
	sw	$3,%lo(INTCONSET)($2)
	.loc 1 74 0
	ei	$2
	.loc 1 76 0
	lui	$3,%hi(T2CON)
	lhu	$2,%lo(T2CON)($3)
	li	$4,1			# 0x1
	ins	$2,$4,15,1
	sh	$2,%lo(T2CON)($3)
	.loc 1 77 0
	move	$sp,$fp
.LCFI8 = .
	.cfi_def_cfa_register 29
	lw	$31,20($sp)
	lw	$fp,16($sp)
	addiu	$sp,$sp,24
	j	$31
	nop

	.set	macro
	.set	reorder
# Begin mchp_output_function_epilogue
# End mchp_output_function_epilogue
	.end	InitApp
	.cfi_endproc
.LFE4:
	.size	InitApp, .-InitApp
	.align	2
	.globl	ISR_Timer_2_Scan_LED_FSM
.LFB5 = .
	.loc 1 109 0
	.cfi_startproc
	.set	nomips16
	.set	nomicromips
	.ent	ISR_Timer_2_Scan_LED_FSM
	.type	ISR_Timer_2_Scan_LED_FSM, @function
ISR_Timer_2_Scan_LED_FSM:
	.frame	$fp,32,$31		# vars= 0, regs= 3/0, args= 0, gp= 0
	.mask	0x4000000c,-20
	.fmask	0x00000000,0
	.set	noreorder
	.set	nomacro
# Begin mchp_output_function_prologue: SOFTWARE_CONTEXT_SAVE
	.set	noat
# End mchp_output_function_prologue
	rdpgpr	$sp,$sp
	mfc0	$26,$14
	mfc0	$27,$12
	addiu	$sp,$sp,-32
.LCFI9 = .
	.cfi_def_cfa_offset 32
	sw	$26,28($sp)
	mfc0	$26,$12,2
	sw	$27,24($sp)
	sw	$26,20($sp)
	ins	$27,$0,1,15
	ori	$27,$27,0xc00
	mtc0	$27,$12
	sw	$fp,12($sp)
	sw	$3,8($sp)
	sw	$2,4($sp)
	.cfi_offset 26, -12
	.cfi_offset 30, -20
	.cfi_offset 3, -24
	.cfi_offset 2, -28
	move	$fp,$sp
.LCFI10 = .
	.cfi_def_cfa_register 30
	.loc 1 110 0
	lw	$2,%gp_rel(Run_TASK_Scan_LEDs)($28)
	addiu	$2,$2,1
	sw	$2,%gp_rel(Run_TASK_Scan_LEDs)($28)
	.loc 1 111 0
	lui	$3,%hi(IFS0)
	lw	$2,%lo(IFS0)($3)
	ins	$2,$0,9,1
	sw	$2,%lo(IFS0)($3)
	.loc 1 112 0
	move	$sp,$fp
.LCFI11 = .
	.cfi_def_cfa_register 29
	lw	$fp,12($sp)
	lw	$3,8($sp)
	lw	$2,4($sp)
	di
	ehb
	lw	$26,28($sp)
	lw	$27,24($sp)
	mtc0	$26,$14
	lw	$26,20($sp)
	addiu	$sp,$sp,32
	mtc0	$26,$12,2
	wrpgpr	$sp,$sp
	mtc0	$27,$12
	eret
	.set	macro
	.set	reorder
# Begin mchp_output_function_epilogue
	.set	at
# End mchp_output_function_epilogue
	.end	ISR_Timer_2_Scan_LED_FSM
	.cfi_endproc
.LFE5:
	.size	ISR_Timer_2_Scan_LED_FSM, .-ISR_Timer_2_Scan_LED_FSM
	.align	2
	.globl	TASK_Scan_LEDs
.LFB6 = .
	.loc 1 116 0
	.cfi_startproc
	.set	nomips16
	.set	nomicromips
	.ent	TASK_Scan_LEDs
	.type	TASK_Scan_LEDs, @function
TASK_Scan_LEDs:
	.frame	$fp,8,$31		# vars= 0, regs= 1/0, args= 0, gp= 0
	.mask	0x40000000,-4
	.fmask	0x00000000,0
	.set	noreorder
	.set	nomacro
# End mchp_output_function_prologue
	addiu	$sp,$sp,-8
.LCFI12 = .
	.cfi_def_cfa_offset 8
	sw	$fp,4($sp)
	.cfi_offset 30, -4
	move	$fp,$sp
.LCFI13 = .
	.cfi_def_cfa_register 30
	.loc 1 120 0
	lw	$2,%gp_rel(FSM_state.19499)($28)
	li	$3,2			# 0x2
	beq	$2,$3,.L7
	nop

	slt	$3,$2,3
	beq	$3,$0,.L8
	nop

	li	$3,1			# 0x1
	beq	$2,$3,.L9
	nop

	j	.L6
	nop

.L8:
	li	$3,3			# 0x3
	beq	$2,$3,.L10
	nop

	li	$3,4			# 0x4
	beq	$2,$3,.L11
	nop

	j	.L6
	nop

.L9:
	.loc 1 122 0
	lw	$2,%gp_rel(LED_state.19498)($28)
	seb	$3,$2
	lw	$2,%gp_rel(G_Allow_Lit_LEDs)($28)
	seb	$2,$2
	and	$2,$3,$2
	seb	$2,$2
	andi	$2,$2,0x00ff
	andi	$2,$2,0x1
	andi	$4,$2,0x00ff
	lui	$3,%hi(LATG)
	lhu	$2,%lo(LATG)($3)
	ins	$2,$4,6,1
	sh	$2,%lo(LATG)($3)
	.loc 1 123 0
	lw	$2,%gp_rel(FSM_state.19499)($28)
	addiu	$2,$2,1
	sw	$2,%gp_rel(FSM_state.19499)($28)
	.loc 1 124 0
	j	.L5
	nop

.L7:
	.loc 1 126 0
	lw	$2,%gp_rel(LED_state.19498)($28)
	seb	$3,$2
	lw	$2,%gp_rel(G_Allow_Lit_LEDs)($28)
	seb	$2,$2
	and	$2,$3,$2
	seb	$2,$2
	andi	$2,$2,0x00ff
	andi	$2,$2,0x1
	andi	$4,$2,0x00ff
	lui	$3,%hi(LATD)
	lhu	$2,%lo(LATD)($3)
	ins	$2,$4,4,1
	sh	$2,%lo(LATD)($3)
	.loc 1 127 0
	lw	$2,%gp_rel(FSM_state.19499)($28)
	addiu	$2,$2,1
	sw	$2,%gp_rel(FSM_state.19499)($28)
	.loc 1 128 0
	j	.L5
	nop

.L10:
	.loc 1 130 0
	lw	$2,%gp_rel(LED_state.19498)($28)
	seb	$3,$2
	lw	$2,%gp_rel(G_Allow_Lit_LEDs)($28)
	seb	$2,$2
	and	$2,$3,$2
	seb	$2,$2
	andi	$2,$2,0x00ff
	andi	$2,$2,0x1
	andi	$4,$2,0x00ff
	lui	$3,%hi(LATB)
	lhu	$2,%lo(LATB)($3)
	ins	$2,$4,11,1
	sh	$2,%lo(LATB)($3)
	.loc 1 131 0
	lw	$2,%gp_rel(FSM_state.19499)($28)
	addiu	$2,$2,1
	sw	$2,%gp_rel(FSM_state.19499)($28)
	.loc 1 132 0
	j	.L5
	nop

.L11:
	.loc 1 134 0
	lw	$2,%gp_rel(LED_state.19498)($28)
	seb	$3,$2
	lw	$2,%gp_rel(G_Allow_Lit_LEDs)($28)
	seb	$2,$2
	and	$2,$3,$2
	seb	$2,$2
	andi	$2,$2,0x00ff
	andi	$2,$2,0x1
	andi	$4,$2,0x00ff
	lui	$3,%hi(LATG)
	lhu	$2,%lo(LATG)($3)
	ins	$2,$4,15,1
	sh	$2,%lo(LATG)($3)
	.loc 1 135 0
	lw	$2,%gp_rel(LED_state.19498)($28)
	li	$3,1			# 0x1
	subu	$2,$3,$2
	sw	$2,%gp_rel(LED_state.19498)($28)
	.loc 1 136 0
	li	$2,1			# 0x1
	sw	$2,%gp_rel(FSM_state.19499)($28)
	.loc 1 137 0
	j	.L5
	nop

.L6:
	.loc 1 139 0
	li	$2,1			# 0x1
	sw	$2,%gp_rel(FSM_state.19499)($28)
	.loc 1 140 0
	nop
.L5:
	.loc 1 142 0
	move	$sp,$fp
.LCFI14 = .
	.cfi_def_cfa_register 29
	lw	$fp,4($sp)
	addiu	$sp,$sp,8
	j	$31
	nop

	.set	macro
	.set	reorder
# Begin mchp_output_function_epilogue
# End mchp_output_function_epilogue
	.end	TASK_Scan_LEDs
	.cfi_endproc
.LFE6:
	.size	TASK_Scan_LEDs, .-TASK_Scan_LEDs
	.align	2
	.globl	TASK_Read_Switches
.LFB7 = .
	.loc 1 145 0
	.cfi_startproc
	.set	nomips16
	.set	nomicromips
	.ent	TASK_Read_Switches
	.type	TASK_Read_Switches, @function
TASK_Read_Switches:
	.frame	$fp,8,$31		# vars= 0, regs= 1/0, args= 0, gp= 0
	.mask	0x40000000,-4
	.fmask	0x00000000,0
	.set	noreorder
	.set	nomacro
# End mchp_output_function_prologue
	addiu	$sp,$sp,-8
.LCFI15 = .
	.cfi_def_cfa_offset 8
	sw	$fp,4($sp)
	.cfi_offset 30, -4
	move	$fp,$sp
.LCFI16 = .
	.cfi_def_cfa_register 30
	.loc 1 146 0
	lui	$2,%hi(PORTA)
	lw	$2,%lo(PORTA)($2)
	andi	$2,$2,0x20
	beq	$2,$0,.L14
	nop

	.loc 1 147 0
	lui	$2,%hi(PR2)
	li	$3,13020			# 0x32dc
	sw	$3,%lo(PR2)($2)
	j	.L15
	nop

.L14:
	.loc 1 149 0
	lui	$2,%hi(PR2)
	li	$3,48828			# 0xbebc
	sw	$3,%lo(PR2)($2)
.L15:
	.loc 1 151 0
	lui	$2,%hi(PORTA)
	lw	$2,%lo(PORTA)($2)
	andi	$2,$2,0x10
	beq	$2,$0,.L16
	nop

	.loc 1 152 0
	sw	$0,%gp_rel(G_Allow_Lit_LEDs)($28)
	j	.L13
	nop

.L16:
	.loc 1 154 0
	li	$2,1			# 0x1
	sw	$2,%gp_rel(G_Allow_Lit_LEDs)($28)
.L13:
	.loc 1 156 0
	move	$sp,$fp
.LCFI17 = .
	.cfi_def_cfa_register 29
	lw	$fp,4($sp)
	addiu	$sp,$sp,8
	j	$31
	nop

	.set	macro
	.set	reorder
# Begin mchp_output_function_epilogue
# End mchp_output_function_epilogue
	.end	TASK_Read_Switches
	.cfi_endproc
.LFE7:
	.size	TASK_Read_Switches, .-TASK_Read_Switches
	.align	2
	.globl	Scan_LEDs_with_Tasks
.LFB8 = .
	.loc 1 164 0
	.cfi_startproc
	.set	nomips16
	.set	nomicromips
	.ent	Scan_LEDs_with_Tasks
	.type	Scan_LEDs_with_Tasks, @function
Scan_LEDs_with_Tasks:
	.frame	$fp,24,$31		# vars= 0, regs= 2/0, args= 16, gp= 0
	.mask	0xc0000000,-4
	.fmask	0x00000000,0
	.set	noreorder
	.set	nomacro
# End mchp_output_function_prologue
	addiu	$sp,$sp,-24
.LCFI18 = .
	.cfi_def_cfa_offset 24
	sw	$31,20($sp)
	sw	$fp,16($sp)
	.cfi_offset 31, -4
	.cfi_offset 30, -8
	move	$fp,$sp
.LCFI19 = .
	.cfi_def_cfa_register 30
.L20:
	.loc 1 166 0
	jal	TASK_Read_Switches
	nop

	.loc 1 167 0
	lw	$2,%gp_rel(Run_TASK_Scan_LEDs)($28)
	blez	$2,.L19
	nop

	.loc 1 169 0
	jal	TASK_Scan_LEDs
	nop

	.loc 1 171 0
	lw	$2,%gp_rel(Run_TASK_Scan_LEDs)($28)
	addiu	$2,$2,-1
	sw	$2,%gp_rel(Run_TASK_Scan_LEDs)($28)
	.loc 1 173 0
	j	.L20
	nop

.L19:
	j	.L20
	nop

	.set	macro
	.set	reorder
# Begin mchp_output_function_epilogue
# End mchp_output_function_epilogue
	.end	Scan_LEDs_with_Tasks
	.cfi_endproc
.LFE8:
	.size	Scan_LEDs_with_Tasks, .-Scan_LEDs_with_Tasks
	.section	.sdata,data
	.align	2
	.type	FSM_state.19499, @object
	.size	FSM_state.19499, 4
FSM_state.19499:
	.word	1
	.align	2
	.type	LED_state.19498, @object
	.size	LED_state.19498, 4
LED_state.19498:
	.word	1
	.section	.text,code
.Letext0:
	.file 2 "c:/program files/microchip/xc32/v1.42/pic32mx/include/proc/p32mz2048ecg100.h"
	.section	.vector_9,code,keep
	.set	nomips16
	.set noreorder
	.align	2
	.ent	__vector_dispatch_9
__vector_dispatch_9:
	j	ISR_Timer_2_Scan_LED_FSM
	nop
	.set reorder
	.end	__vector_dispatch_9
	.size	__vector_dispatch_9, .-__vector_dispatch_9
# End MCHP vector dispatch table
# Microchip Technology PIC32 MCU configuration words
