	.section .mdebug.abi32
	.previous
	.gnu_attribute 4, 3
	.section	.text,code
.Ltext0:
	.cfi_sections	.debug_frame
	.align	2
	.globl	Timed_Array_Test_CR
.LFB2 = .
	.file 1 "e:/\264\375\260\354\312\302\317\356/\315\352\263\311\312\257\300\317\312\246\264\363\321\247\274\306\273\256\310\316\316\361/cml/the-connected-mcu-lab--v1.5-12oct2016-chn/release/modules/11_cpu/lab11_cache_solution/main.c"
	.loc 1 32 0
	.cfi_startproc
	.set	nomips16
	.set	nomicromips
	.ent	Timed_Array_Test_CR
	.type	Timed_Array_Test_CR, @function
Timed_Array_Test_CR:
	.frame	$sp,0,$31		# vars= 0, regs= 0/0, args= 0, gp= 0
	.mask	0x00000000,0
	.fmask	0x00000000,0
	.set	noreorder
	.set	nomacro
# End mchp_output_function_prologue
.LVL0 = .
	.loc 1 37 0
	lui	$2,%hi(LATE)
	lhu	$3,%lo(LATE)($2)
	li	$8,1			# 0x1
	ins	$3,$8,0,1
	sh	$3,%lo(LATE)($2)
	.loc 1 38 0
	lui	$2,%hi(TMR2)
	sw	$0,%lo(TMR2)($2)
.LVL1 = .
	.loc 1 43 0
	sll	$11,$5,2
	.loc 1 34 0
	move	$8,$0
	.loc 1 39 0
	move	$10,$0
.LVL2 = .
.L5:
	move	$3,$6
	.loc 1 41 0
	move	$2,$0
.LVL3 = .
.L3:
	.loc 1 43 0
	lw	$9,0($3)
	addu	$8,$8,$9
.LVL4 = .
	.loc 1 44 0
	addiu	$2,$2,1
.LVL5 = .
	.loc 1 45 0
	slt	$9,$2,$5
	bne	$9,$0,.L3
	addiu	$3,$3,4

	.loc 1 46 0
	addiu	$10,$10,1
.LVL6 = .
	.loc 1 47 0
	slt	$2,$10,$4
.LVL7 = .
	bne	$2,$0,.L5
	addu	$6,$6,$11

	.loc 1 48 0
	lui	$2,%hi(TMR2)
	lw	$2,%lo(TMR2)($2)
.LVL8 = .
	.loc 1 49 0
	lui	$3,%hi(LATE)
	lhu	$4,%lo(LATE)($3)
.LVL9 = .
	ins	$4,$0,0,1
	sh	$4,%lo(LATE)($3)
	.loc 1 52 0
	j	$31
	sw	$8,0($7)

	.set	macro
	.set	reorder
# Begin mchp_output_function_epilogue
# End mchp_output_function_epilogue
	.end	Timed_Array_Test_CR
	.cfi_endproc
.LFE2:
	.size	Timed_Array_Test_CR, .-Timed_Array_Test_CR
	.align	2
	.globl	Timed_Array_Test_RC
.LFB3 = .
	.loc 1 54 0
	.cfi_startproc
	.set	nomips16
	.set	nomicromips
	.ent	Timed_Array_Test_RC
	.type	Timed_Array_Test_RC, @function
Timed_Array_Test_RC:
	.frame	$sp,0,$31		# vars= 0, regs= 0/0, args= 0, gp= 0
	.mask	0x00000000,0
	.fmask	0x00000000,0
	.set	noreorder
	.set	nomacro
# End mchp_output_function_prologue
.LVL10 = .
	.loc 1 59 0
	lui	$2,%hi(LATE)
	lhu	$3,%lo(LATE)($2)
	li	$8,1			# 0x1
	ins	$3,$8,0,1
	sh	$3,%lo(LATE)($2)
	.loc 1 60 0
	lui	$2,%hi(TMR2)
	sw	$0,%lo(TMR2)($2)
.LVL11 = .
	.loc 1 65 0
	sll	$11,$5,2
	.loc 1 56 0
	move	$8,$0
	.loc 1 61 0
	move	$12,$0
.LVL12 = .
	move	$3,$6
.L11:
	.loc 1 63 0
	move	$2,$0
	.loc 1 65 0
	sll	$10,$12,2
.LVL13 = .
.L8:
	lwx	$9,$3($10)
	addu	$8,$8,$9
.LVL14 = .
	.loc 1 66 0
	addiu	$2,$2,1
.LVL15 = .
	.loc 1 67 0
	slt	$9,$2,$4
	bne	$9,$0,.L8
	addu	$3,$3,$11

	.loc 1 68 0
	addiu	$12,$12,1
.LVL16 = .
	.loc 1 69 0
	slt	$2,$12,$5
.LVL17 = .
	bne	$2,$0,.L11
	move	$3,$6

	.loc 1 70 0
	lui	$2,%hi(TMR2)
	lw	$2,%lo(TMR2)($2)
.LVL18 = .
	.loc 1 71 0
	lui	$3,%hi(LATE)
	lhu	$4,%lo(LATE)($3)
.LVL19 = .
	ins	$4,$0,0,1
	sh	$4,%lo(LATE)($3)
	.loc 1 74 0
	j	$31
	sw	$8,0($7)

	.set	macro
	.set	reorder
# Begin mchp_output_function_epilogue
# End mchp_output_function_epilogue
	.end	Timed_Array_Test_RC
	.cfi_endproc
.LFE3:
	.size	Timed_Array_Test_RC, .-Timed_Array_Test_RC
	.align	2
	.globl	Pollute_Cache
.LFB4 = .
	.loc 1 76 0
	.cfi_startproc
	.set	nomips16
	.set	nomicromips
	.ent	Pollute_Cache
	.type	Pollute_Cache, @function
Pollute_Cache:
	.frame	$sp,0,$31		# vars= 0, regs= 0/0, args= 0, gp= 0
	.mask	0x00000000,0
	.fmask	0x00000000,0
	.set	noreorder
	.set	nomacro
# End mchp_output_function_prologue
.LVL20 = .
	.loc 1 76 0
	li	$2,1024			# 0x400
.LVL21 = .
	addiu	$2,$2,-1
.LVL22 = .
.L16:
	.loc 1 80 0
	bnel	$2,$0,.L16
	addiu	$2,$2,-1

.LVL23 = .
	.loc 1 83 0
	j	$31
	nop

	.set	macro
	.set	reorder
# Begin mchp_output_function_epilogue
# End mchp_output_function_epilogue
	.end	Pollute_Cache
	.cfi_endproc
.LFE4:
	.size	Pollute_Cache, .-Pollute_Cache
	.section	.rodata,code
	.align	2
.LC0:
	.ascii	"Cache Eval.\000"
	.align	2
.LC1:
	.ascii	"%u*%u array\000"
	.align	2
.LC2:
	.ascii	"%6u T2 ticks\000"
	.align	2
.LC3:
	.ascii	"%6.3f CPU cy/el\000"
	.globl	__floatunsisf
	.globl	fpmul
	.globl	fpdiv
	.section	.text,code
	.align	2
	.globl	main
.LFB5 = .
	.loc 1 85 0
	.cfi_startproc
	.set	nomips16
	.set	nomicromips
	.ent	main
	.type	main, @function
main:
	.frame	$sp,72,$31		# vars= 24, regs= 8/0, args= 16, gp= 0
	.mask	0x807f0000,-4
	.fmask	0x00000000,0
	.set	noreorder
	.set	nomacro
# End mchp_output_function_prologue
	addiu	$sp,$sp,-72
.LCFI0 = .
	.cfi_def_cfa_offset 72
	sw	$31,68($sp)
	sw	$22,64($sp)
	sw	$21,60($sp)
	sw	$20,56($sp)
	sw	$19,52($sp)
	sw	$18,48($sp)
	sw	$17,44($sp)
	sw	$16,40($sp)
	.cfi_offset 31, -4
	.cfi_offset 22, -8
	.cfi_offset 21, -12
	.cfi_offset 20, -16
	.cfi_offset 19, -20
	.cfi_offset 18, -24
	.cfi_offset 17, -28
	.cfi_offset 16, -32
.LVL24 = .
	.loc 1 92 0
	jal	InitApp
	sw	$0,32($sp)

.LVL25 = .
	.loc 1 94 0
	move	$4,$0
	jal	OledSetCursor
	move	$5,$0

.LVL26 = .
	.loc 1 95 0
	lui	$4,%hi(.LC0)
	jal	OledPutString
	addiu	$4,$4,%lo(.LC0)

.LVL27 = .
	.loc 1 96 0
	jal	DelayMs
	li	$4,500			# 0x1f4

.LVL28 = .
	.loc 1 99 0
	lui	$22,%hi(.LC1)
	addiu	$22,$22,%lo(.LC1)
	.loc 1 106 0
	lui	$21,%hi(aa)
	addiu	$21,$21,%lo(aa)
	.loc 1 108 0
	lui	$20,%hi(.LC2)
	addiu	$20,$20,%lo(.LC2)
	.loc 1 112 0
	lui	$2,%hi(.LC4)
	lw	$19,%lo(.LC4)($2)
	lui	$2,%hi(.LC5)
	lw	$18,%lo(.LC5)($2)
	lui	$17,%hi(.LC3)
	addiu	$17,$17,%lo(.LC3)
.LVL29 = .
	.loc 1 99 0
	addiu	$4,$sp,16
.L20:
	move	$5,$22
	li	$6,48			# 0x30
	jal	_sprintf_cdfFnopuxX
	li	$7,48			# 0x30

.LVL30 = .
	.loc 1 100 0
	move	$4,$0
	jal	OledSetCursor
	li	$5,1			# 0x1

.LVL31 = .
	.loc 1 101 0
	jal	OledPutString
	addiu	$4,$sp,16

.LVL32 = .
	.loc 1 106 0
	li	$4,48			# 0x30
	li	$5,48			# 0x30
	move	$6,$21
	jal	Timed_Array_Test_CR
	addiu	$7,$sp,32

.LVL33 = .
	move	$16,$2
.LVL34 = .
	.loc 1 108 0
	addiu	$4,$sp,16
	move	$5,$20
	jal	_sprintf_cdfFnopuxX
	move	$6,$2

.LVL35 = .
	.loc 1 109 0
	move	$4,$0
	jal	OledSetCursor
	li	$5,2			# 0x2

.LVL36 = .
	.loc 1 110 0
	jal	OledPutString
	addiu	$4,$sp,16

.LVL37 = .
	.loc 1 112 0
	jal	__floatunsisf
	move	$4,$16

.LVL38 = .
	move	$4,$2
	jal	fpmul
	move	$5,$19

.LVL39 = .
	move	$4,$2
	jal	fpdiv
	move	$5,$18

.LVL40 = .
	addiu	$4,$sp,16
	move	$5,$17
	jal	_sprintf_cdfFnopuxX
	move	$6,$2

.LVL41 = .
	.loc 1 113 0
	move	$4,$0
	jal	OledSetCursor
	li	$5,3			# 0x3

.LVL42 = .
	.loc 1 114 0
	jal	OledPutString
	addiu	$4,$sp,16

.LVL43 = .
	.loc 1 99 0
	j	.L20
	addiu	$4,$sp,16

	.set	macro
	.set	reorder
# Begin mchp_output_function_epilogue
# End mchp_output_function_epilogue
	.end	main
	.cfi_endproc
.LFE5:
	.size	main, .-main

	.comm	aa,9216,4

	.comm	dummy,4096,4

	.comm	rgbOledBmp,512,4
	.section	.rodata,code
	.align	2
.LC4:
	.word	1082130432
	.align	2
.LC5:
	.word	1158676480
	.section	.text,code
.Letext0:
	.file 2 "c:/program files/microchip/xc32/v1.42/pic32mx/include/proc/p32mz2048ecg100.h"
	.file 3 "c:/program files/microchip/xc32/v1.42/pic32mx/include/machine/int_types.h"
	.file 4 "e:/\264\375\260\354\312\302\317\356/\315\352\263\311\312\257\300\317\312\246\264\363\321\247\274\306\273\256\310\316\316\361/cml/the-connected-mcu-lab--v1.5-12oct2016-chn/release/modules/11_cpu/lab11_cache_solution/oled.h"
	.file 5 "e:/\264\375\260\354\312\302\317\356/\315\352\263\311\312\257\300\317\312\246\264\363\321\247\274\306\273\256\310\316\316\361/cml/the-connected-mcu-lab--v1.5-12oct2016-chn/release/modules/11_cpu/lab11_cache_solution/user.h"
	.file 6 "c:/program files/microchip/xc32/v1.42/pic32mx/include/stdio.h"